ARM Linker, 4.1 [Build 481] [Standard]

==============================================================================

Section Cross References

    main.o(i.Delay) refers to main.o(.data) for LocalTime
    main.o(i.InitTIM) refers to stm32f10x_rcc.o(i.RCC_APB1PeriphClockCmd) for RCC_APB1PeriphClockCmd
    main.o(i.InitTIM) refers to stm32f10x_tim.o(i.TIM_ARRPreloadConfig) for TIM_ARRPreloadConfig
    main.o(i.InitTIM) refers to misc.o(i.NVIC_PriorityGroupConfig) for NVIC_PriorityGroupConfig
    main.o(i.InitTIM) refers to misc.o(i.NVIC_Init) for NVIC_Init
    main.o(i.InitTIM) refers to stm32f10x_tim.o(i.TIM_ClearITPendingBit) for TIM_ClearITPendingBit
    main.o(i.InitTIM) refers to stm32f10x_tim.o(i.TIM_ITConfig) for TIM_ITConfig
    main.o(i.InitTIM) refers to stm32f10x_tim.o(i.TIM_Cmd) for TIM_Cmd
    main.o(i.InitTIM) refers to stm32f10x_tim.o(i.TIM_TimeBaseInit) for TIM_TimeBaseInit
    main.o(i.InitTIM) refers to stm32f10x_tim.o(i.TIM_SetCounter) for TIM_SetCounter
    main.o(i.TIM2_IRQHandler) refers to stm32f10x_tim.o(i.TIM_GetITStatus) for TIM_GetITStatus
    main.o(i.TIM2_IRQHandler) refers to stm32f10x_tim.o(i.TIM_ClearFlag) for TIM_ClearFlag
    main.o(i.TIM2_IRQHandler) refers to stm32f10x_tim.o(i.TIM_ClearITPendingBit) for TIM_ClearITPendingBit
    main.o(i.TIM2_IRQHandler) refers to main.o(.data) for LocalTime
    main.o(i.main) refers to stm32f107.o(i.System_Setup) for System_Setup
    main.o(i.main) refers to main.o(i.InitTIM) for InitTIM
    main.o(i.main) refers to filesystem.o(i.FileSystemInit) for FileSystemInit
    main.o(i.main) refers to filesystem.o(i.FileSystemThread) for FileSystemThread
    main.o(i.main) refers to netconf.o(i.LwIP_Init) for LwIP_Init
    main.o(i.main) refers to netbios.o(i.netbios_init) for netbios_init
    main.o(i.main) refers to tftpserver.o(i.tftpd_init) for tftpd_init
    main.o(i.main) refers to client_tcpudp.o(i.tcp_sever_test) for tcp_sever_test
    main.o(i.main) refers to httpd.o(i.httpd_init) for httpd_init
    main.o(i.main) refers to ds18b20srom.o(i.TemperatureThread) for TemperatureThread
    main.o(i.main) refers to client_tcpudp.o(i.TcpTestThread) for TcpTestThread
    main.o(i.main) refers to client_tcpudp.o(i.SendDataToSever) for SendDataToSever
    main.o(i.main) refers to client_tcpudp.o(i.UDPSendData) for UDPSendData
    main.o(i.main) refers to netconf.o(i.LwIP_Periodic_Handle) for LwIP_Periodic_Handle
    main.o(i.main) refers to main.o(.data) for LocalTime
    netconf.o(i.LwIP_Init) refers to mem.o(i.mem_init) for mem_init
    netconf.o(i.LwIP_Init) refers to memp.o(i.memp_init) for memp_init
    netconf.o(i.LwIP_Init) refers to ethernetif.o(i.Set_MAC_Address) for Set_MAC_Address
    netconf.o(i.LwIP_Init) refers to netif.o(i.netif_add) for netif_add
    netconf.o(i.LwIP_Init) refers to netif.o(i.netif_set_default) for netif_set_default
    netconf.o(i.LwIP_Init) refers to netif.o(i.netif_set_up) for netif_set_up
    netconf.o(i.LwIP_Init) refers to netconf.o(.data) for macaddress
    netconf.o(i.LwIP_Init) refers to etharp.o(i.ethernet_input) for ethernet_input
    netconf.o(i.LwIP_Init) refers to ethernetif.o(i.ethernetif_init) for ethernetif_init
    netconf.o(i.LwIP_Init) refers to netconf.o(.bss) for netif
    netconf.o(i.LwIP_Periodic_Handle) refers to ethernetif.o(i.ETH_Recive_Poll) for ETH_Recive_Poll
    netconf.o(i.LwIP_Periodic_Handle) refers to tcp.o(i.tcp_tmr) for tcp_tmr
    netconf.o(i.LwIP_Periodic_Handle) refers to tftpserver.o(i.TftpTrm250ms) for TftpTrm250ms
    netconf.o(i.LwIP_Periodic_Handle) refers to etharp.o(i.etharp_tmr) for etharp_tmr
    netconf.o(i.LwIP_Periodic_Handle) refers to netconf.o(.data) for TCPTimer
    netconf.o(i.LwIP_Pkt_Handle) refers to ethernetif.o(i.ethernetif_input) for ethernetif_input
    netconf.o(i.LwIP_Pkt_Handle) refers to netconf.o(.bss) for netif
    stm32f10x_it.o(i.ETH_IRQHandler) refers to ethernetif.o(i.Read_Eth_Packet) for Read_Eth_Packet
    stm32f10x_it.o(i.ETH_IRQHandler) refers to stm32_eth.o(i.ETH_GetRxPktSize) for ETH_GetRxPktSize
    stm32f10x_it.o(i.ETH_IRQHandler) refers to stm32_eth.o(i.ETH_DMAClearITPendingBit) for ETH_DMAClearITPendingBit
    stm32f10x_it.o(i.HardFault_Handler) refers to stm32f10x_it.o(.emb_text) for wait
    stm32f10x_it.o(i.SysTick_Handler) refers to main.o(i.Time_Update) for Time_Update
    stm32f107.o(i.ADC_Configuration) refers to stm32f10x_adc.o(i.ADC_Init) for ADC_Init
    stm32f107.o(i.ADC_Configuration) refers to stm32f10x_adc.o(i.ADC_RegularChannelConfig) for ADC_RegularChannelConfig
    stm32f107.o(i.ADC_Configuration) refers to stm32f10x_adc.o(i.ADC_Cmd) for ADC_Cmd
    stm32f107.o(i.ADC_Configuration) refers to stm32f10x_adc.o(i.ADC_SoftwareStartConvCmd) for ADC_SoftwareStartConvCmd
    stm32f107.o(i.Ethernet_Configuration) refers to stm32f10x_gpio.o(i.GPIO_ETH_MediaInterfaceConfig) for GPIO_ETH_MediaInterfaceConfig
    stm32f107.o(i.Ethernet_Configuration) refers to stm32f10x_rcc.o(i.RCC_MCOConfig) for RCC_MCOConfig
    stm32f107.o(i.Ethernet_Configuration) refers to stm32_eth.o(i.ETH_DeInit) for ETH_DeInit
    stm32f107.o(i.Ethernet_Configuration) refers to stm32_eth.o(i.ETH_SoftwareReset) for ETH_SoftwareReset
    stm32f107.o(i.Ethernet_Configuration) refers to stm32_eth.o(i.ETH_GetSoftwareResetStatus) for ETH_GetSoftwareResetStatus
    stm32f107.o(i.Ethernet_Configuration) refers to stm32_eth.o(i.ETH_StructInit) for ETH_StructInit
    stm32f107.o(i.Ethernet_Configuration) refers to stm32_eth.o(i.ETH_Init) for ETH_Init
    stm32f107.o(i.Ethernet_Configuration) refers to stm32_eth.o(i.ETH_DMAITConfig) for ETH_DMAITConfig
    stm32f107.o(i.GPIO_Configuration) refers to stm32f10x_gpio.o(i.GPIO_Init) for GPIO_Init
    stm32f107.o(i.GPIO_Configuration) refers to stm32f10x_gpio.o(i.GPIO_PinRemapConfig) for GPIO_PinRemapConfig
    stm32f107.o(i.NVIC_Configuration) refers to misc.o(i.NVIC_SetVectorTable) for NVIC_SetVectorTable
    stm32f107.o(i.NVIC_Configuration) refers to misc.o(i.NVIC_PriorityGroupConfig) for NVIC_PriorityGroupConfig
    stm32f107.o(i.NVIC_Configuration) refers to misc.o(i.NVIC_Init) for NVIC_Init
    stm32f107.o(i.System_Setup) refers to system_stm32f10x.o(i.SystemInit) for SystemInit
    stm32f107.o(i.System_Setup) refers to stm32f10x_rcc.o(i.RCC_APB1PeriphClockCmd) for RCC_APB1PeriphClockCmd
    stm32f107.o(i.System_Setup) refers to stm32f10x_rcc.o(i.RCC_AHBPeriphClockCmd) for RCC_AHBPeriphClockCmd
    stm32f107.o(i.System_Setup) refers to stm32f10x_rcc.o(i.RCC_APB2PeriphClockCmd) for RCC_APB2PeriphClockCmd
    stm32f107.o(i.System_Setup) refers to stm32f107.o(i.NVIC_Configuration) for NVIC_Configuration
    stm32f107.o(i.System_Setup) refers to stm32f107.o(i.GPIO_Configuration) for GPIO_Configuration
    stm32f107.o(i.System_Setup) refers to stm32f107.o(i.Ethernet_Configuration) for Ethernet_Configuration
    stm32f107.o(i.System_Setup) refers to stm32f10x_rcc.o(i.RCC_GetClocksFreq) for RCC_GetClocksFreq
    stm32f107.o(i.System_Setup) refers to stm32f107.o(i.NVIC_SetPriority) for NVIC_SetPriority
    client_tcpudp.o(i.SendDataToSever) refers to client_tcpudp.o(.data) for Tcplink
    client_tcpudp.o(i.TcpTestThread) refers to filesystem.o(i.FS_Write) for FS_Write
    client_tcpudp.o(i.TcpTestThread) refers to client_tcpudp.o(i.tcp_client_callback) for tcp_client_callback
    client_tcpudp.o(i.TcpTestThread) refers to client_tcpudp.o(i.udp_client_callback_app) for udp_client_callback_app
    client_tcpudp.o(i.TcpTestThread) refers to client_tcpudp.o(.data) for TCPCreatTrm
    client_tcpudp.o(i.Tcp_accept) refers to tcp.o(i.tcp_recv) for tcp_recv
    client_tcpudp.o(i.Tcp_accept) refers to tcp.o(i.tcp_err) for tcp_err
    client_tcpudp.o(i.Tcp_accept) refers to client_tcpudp.o(i.Tcp_recv) for Tcp_recv
    client_tcpudp.o(i.Tcp_accept) refers to client_tcpudp.o(i.conn_err) for conn_err
    client_tcpudp.o(i.Tcp_recv) refers to pbuf.o(i.pbuf_free) for pbuf_free
    client_tcpudp.o(i.Tcp_recv) refers to tcp.o(i.tcp_close) for tcp_close
    client_tcpudp.o(i.UDPSendData) refers to pbuf.o(i.pbuf_alloc) for pbuf_alloc
    client_tcpudp.o(i.UDPSendData) refers to memcpya.o(.text) for __aeabi_memcpy
    client_tcpudp.o(i.UDPSendData) refers to udp.o(i.udp_sendto) for udp_sendto
    client_tcpudp.o(i.UDPSendData) refers to pbuf.o(i.pbuf_free) for pbuf_free
    client_tcpudp.o(i.UDPSendData) refers to client_tcpudp.o(.data) for Udplink
    client_tcpudp.o(i.UDPSendData) refers to ds18b20srom.o(.bss) for temp
    client_tcpudp.o(i.UDPSendData) refers to ip_addr.o(.constdata) for ip_addr_broadcast
    client_tcpudp.o(i.tcp_client_callback) refers to tcp.o(i.tcp_new) for tcp_new
    client_tcpudp.o(i.tcp_client_callback) refers to tcp.o(i.tcp_bind) for tcp_bind
    client_tcpudp.o(i.tcp_client_callback) refers to tcp.o(i.tcp_connect) for tcp_connect
    client_tcpudp.o(i.tcp_client_callback) refers to tcp.o(i.tcp_err) for tcp_err
    client_tcpudp.o(i.tcp_client_callback) refers to tcp.o(i.tcp_recv) for tcp_recv
    client_tcpudp.o(i.tcp_client_callback) refers to client_tcpudp.o(.data) for wpcb
    client_tcpudp.o(i.tcp_client_callback) refers to ip_addr.o(.constdata) for ip_addr_any
    client_tcpudp.o(i.tcp_client_callback) refers to client_tcpudp.o(i.tcp_client_connected) for tcp_client_connected
    client_tcpudp.o(i.tcp_client_callback) refers to client_tcpudp.o(i.tcp_client_err) for tcp_client_err
    client_tcpudp.o(i.tcp_client_callback) refers to client_tcpudp.o(i.tcp_client_reciver) for tcp_client_reciver
    client_tcpudp.o(i.tcp_client_connected) refers to tcp_out.o(i.tcp_write) for tcp_write
    client_tcpudp.o(i.tcp_client_connected) refers to tcp_out.o(i.tcp_output) for tcp_output
    client_tcpudp.o(i.tcp_client_connected) refers to client_tcpudp.o(.data) for Tcplink
    client_tcpudp.o(i.tcp_client_err) refers to client_tcpudp.o(.data) for Tcplink
    client_tcpudp.o(i.tcp_client_reciver) refers to tcp.o(i.tcp_recved) for tcp_recved
    client_tcpudp.o(i.tcp_client_reciver) refers to strncmp.o(.text) for strncmp
    client_tcpudp.o(i.tcp_client_reciver) refers to tcp_out.o(i.tcp_write) for tcp_write
    client_tcpudp.o(i.tcp_client_reciver) refers to tcp_out.o(i.tcp_output) for tcp_output
    client_tcpudp.o(i.tcp_client_reciver) refers to memcmp.o(.text) for memcmp
    client_tcpudp.o(i.tcp_client_reciver) refers to pbuf.o(i.pbuf_free) for pbuf_free
    client_tcpudp.o(i.tcp_client_reciver) refers to tcp.o(i.tcp_close) for tcp_close
    client_tcpudp.o(i.tcp_client_reciver) refers to client_tcpudp.o(.data) for cansent
    client_tcpudp.o(i.tcp_sever_test) refers to tcp.o(i.tcp_new) for tcp_new
    client_tcpudp.o(i.tcp_sever_test) refers to tcp.o(i.tcp_bind) for tcp_bind
    client_tcpudp.o(i.tcp_sever_test) refers to tcp.o(i.tcp_listen_with_backlog) for tcp_listen_with_backlog
    client_tcpudp.o(i.tcp_sever_test) refers to tcp.o(i.tcp_accept) for tcp_accept
    client_tcpudp.o(i.tcp_sever_test) refers to ip_addr.o(.constdata) for ip_addr_any
    client_tcpudp.o(i.tcp_sever_test) refers to client_tcpudp.o(i.Tcp_accept) for Tcp_accept
    client_tcpudp.o(i.udp_client_callback) refers to memcpya.o(.text) for __aeabi_memcpy
    client_tcpudp.o(i.udp_client_callback) refers to pbuf.o(i.pbuf_alloc) for pbuf_alloc
    client_tcpudp.o(i.udp_client_callback) refers to udp.o(i.udp_sendto) for udp_sendto
    client_tcpudp.o(i.udp_client_callback) refers to pbuf.o(i.pbuf_free) for pbuf_free
    client_tcpudp.o(i.udp_client_callback) refers to client_tcpudp.o(.bss) for Udpbuf
    client_tcpudp.o(i.udp_client_callback) refers to ip_addr.o(.constdata) for ip_addr_broadcast
    client_tcpudp.o(i.udp_client_callback_app) refers to udp.o(i.udp_new) for udp_new
    client_tcpudp.o(i.udp_client_callback_app) refers to udp.o(i.udp_bind) for udp_bind
    client_tcpudp.o(i.udp_client_callback_app) refers to udp.o(i.udp_recv) for udp_recv
    client_tcpudp.o(i.udp_client_callback_app) refers to client_tcpudp.o(.data) for upcb
    client_tcpudp.o(i.udp_client_callback_app) refers to ip_addr.o(.constdata) for ip_addr_any
    client_tcpudp.o(i.udp_client_callback_app) refers to client_tcpudp.o(i.udp_client_callback) for udp_client_callback
    filesystem.o(i.FS_Write) refers to file.o(i.file_fopen) for file_fopen
    filesystem.o(i.FS_Write) refers to file.o(i.file_write) for file_write
    filesystem.o(i.FS_Write) refers to filesystem.o(i.FileSystemClose) for FileSystemClose
    filesystem.o(i.FS_Write) refers to filesystem.o(.bss) for myefs2
    filesystem.o(i.FS_Writehtml) refers to memcmp.o(.text) for memcmp
    filesystem.o(i.FS_Writehtml) refers to file.o(i.file_fopen) for file_fopen
    filesystem.o(i.FS_Writehtml) refers to filesystem.o(i.FindFileString) for FindFileString
    filesystem.o(i.FS_Writehtml) refers to file.o(i.file_fread) for file_fread
    filesystem.o(i.FS_Writehtml) refers to filesystem.o(i.FileSystemClose) for FileSystemClose
    filesystem.o(i.FS_Writehtml) refers to file.o(i.file_fwrite) for file_fwrite
    filesystem.o(i.FS_Writehtml) refers to filesystem.o(.bss) for tempt
    filesystem.o(i.FS_Writehtml) refers to filesystem.o(.data) for deepsizeA
    filesystem.o(i.FileSysteRead) refers to file.o(i.file_fopen) for file_fopen
    filesystem.o(i.FileSysteRead) refers to file.o(i.file_read) for file_read
    filesystem.o(i.FileSysteRead) refers to filesystem.o(i.FileSystemClose) for FileSystemClose
    filesystem.o(i.FileSysteRead) refers to filesystem.o(.bss) for myefs1
    filesystem.o(i.FileSysteWrite) refers to file.o(i.file_fopen) for file_fopen
    filesystem.o(i.FileSysteWrite) refers to file.o(i.file_write) for file_write
    filesystem.o(i.FileSysteWrite) refers to filesystem.o(i.FileSystemClose) for FileSystemClose
    filesystem.o(i.FileSysteWrite) refers to filesystem.o(.bss) for myefs2
    filesystem.o(i.FileSystemClose) refers to file.o(i.file_fclose) for file_fclose
    filesystem.o(i.FileSystemClose) refers to fs.o(i.fs_umount) for fs_umount
    filesystem.o(i.FileSystemDelete) refers to ui.o(i.rmfile) for rmfile
    filesystem.o(i.FileSystemInit) refers to efs.o(i.efs_init) for efs_init
    filesystem.o(i.FileSystemInit) refers to ls.o(i.ls_openDir) for ls_openDir
    filesystem.o(i.FileSystemInit) refers to httpd.o(i.Http_File_System_Init) for Http_File_System_Init
    filesystem.o(i.FileSystemInit) refers to filesystem.o(.bss) for myefs1
    filesystem.o(i.FileSystemThread) refers to filesystem.o(i.FileSysteWrite) for FileSysteWrite
    filesystem.o(i.FindFileString) refers to file.o(i.file_read) for file_read
    filesystem.o(i.FindFileString) refers to strstr.o(.text) for strstr
    filesystem.o(i.FindFileString) refers to filesystem.o(.bss) for filebuf
    filesystem.o(i.FindMP3fileALL) refers to efs.o(i.efs_init) for efs_init
    filesystem.o(i.FindMP3fileALL) refers to ls.o(i.ls_openDir) for ls_openDir
    filesystem.o(i.FindMP3fileALL) refers to ls.o(i.ls_getNext) for ls_getNext
    filesystem.o(i.FindMP3fileALL) refers to filesystem.o(.data) for filecount
    netbios.o(i.netbios_init) refers to udp.o(i.udp_new) for udp_new
    netbios.o(i.netbios_init) refers to udp.o(i.udp_bind) for udp_bind
    netbios.o(i.netbios_init) refers to udp.o(i.udp_recv) for udp_recv
    netbios.o(i.netbios_init) refers to ip_addr.o(.constdata) for ip_addr_any
    netbios.o(i.netbios_init) refers to netbios.o(i.netbios_recv) for netbios_recv
    netbios.o(i.netbios_recv) refers to netbios.o(i.netbios_name_decoding) for netbios_name_decoding
    netbios.o(i.netbios_recv) refers to strcmp.o(.text) for strcmp
    netbios.o(i.netbios_recv) refers to pbuf.o(i.pbuf_alloc) for pbuf_alloc
    netbios.o(i.netbios_recv) refers to memcpya.o(.text) for __aeabi_memcpy
    netbios.o(i.netbios_recv) refers to udp.o(i.udp_sendto) for udp_sendto
    netbios.o(i.netbios_recv) refers to pbuf.o(i.pbuf_free) for pbuf_free
    netbios.o(i.netbios_recv) refers to netif.o(.data) for netif_default
    tftpserver.o(i.TftpTrm250ms) refers to tftpserver.o(i.tftp_send_error_message) for tftp_send_error_message
    tftpserver.o(i.TftpTrm250ms) refers to tftpserver.o(i.tftp_cleanup_rd) for tftp_cleanup_rd
    tftpserver.o(i.TftpTrm250ms) refers to tftpserver.o(.data) for tftptimeoutTimer
    tftpserver.o(i.process_tftp_request) refers to tftputils.o(i.tftp_decode_op) for tftp_decode_op
    tftpserver.o(i.process_tftp_request) refers to udp.o(i.udp_recv) for udp_recv
    tftpserver.o(i.process_tftp_request) refers to udp.o(i.udp_new) for udp_new
    tftpserver.o(i.process_tftp_request) refers to udp.o(i.udp_bind) for udp_bind
    tftpserver.o(i.process_tftp_request) refers to udp.o(i.udp_remove) for udp_remove
    tftpserver.o(i.process_tftp_request) refers to tftputils.o(i.tftp_extract_filename) for tftp_extract_filename
    tftpserver.o(i.process_tftp_request) refers to efs.o(i.efs_init) for efs_init
    tftpserver.o(i.process_tftp_request) refers to tftpserver.o(i.tftp_send_error_message) for tftp_send_error_message
    tftpserver.o(i.process_tftp_request) refers to ls.o(i.ls_openDir) for ls_openDir
    tftpserver.o(i.process_tftp_request) refers to tftpserver.o(i.tftp_process_read) for tftp_process_read
    tftpserver.o(i.process_tftp_request) refers to tftpserver.o(i.tftp_process_write) for tftp_process_write
    tftpserver.o(i.process_tftp_request) refers to tftpserver.o(.data) for UDPpcb
    tftpserver.o(i.process_tftp_request) refers to tftpserver.o(i.recv_callback_tftp) for recv_callback_tftp
    tftpserver.o(i.process_tftp_request) refers to ip_addr.o(.constdata) for ip_addr_any
    tftpserver.o(i.process_tftp_request) refers to tftpserver.o(.bss) for efs1
    tftpserver.o(i.recv_callback_tftp) refers to tftpserver.o(i.process_tftp_request) for process_tftp_request
    tftpserver.o(i.recv_callback_tftp) refers to pbuf.o(i.pbuf_free) for pbuf_free
    tftpserver.o(i.rrq_recv_callback) refers to tftputils.o(i.tftp_is_correct_ack) for tftp_is_correct_ack
    tftpserver.o(i.rrq_recv_callback) refers to tftpserver.o(i.tftp_cleanup_rd) for tftp_cleanup_rd
    tftpserver.o(i.rrq_recv_callback) refers to pbuf.o(i.pbuf_free) for pbuf_free
    tftpserver.o(i.rrq_recv_callback) refers to tftpserver.o(i.tftp_send_next_block) for tftp_send_next_block
    tftpserver.o(i.rrq_recv_callback) refers to tftpserver.o(.data) for tftptimeout
    tftpserver.o(i.tftp_cleanup_rd) refers to file.o(i.file_fclose) for file_fclose
    tftpserver.o(i.tftp_cleanup_rd) refers to fs.o(i.fs_umount) for fs_umount
    tftpserver.o(i.tftp_cleanup_rd) refers to mem.o(i.mem_free) for mem_free
    tftpserver.o(i.tftp_cleanup_rd) refers to udp.o(i.udp_disconnect) for udp_disconnect
    tftpserver.o(i.tftp_cleanup_rd) refers to udp.o(i.udp_remove) for udp_remove
    tftpserver.o(i.tftp_cleanup_rd) refers to udp.o(i.udp_recv) for udp_recv
    tftpserver.o(i.tftp_cleanup_rd) refers to tftpserver.o(.bss) for file_SD
    tftpserver.o(i.tftp_cleanup_rd) refers to tftpserver.o(i.recv_callback_tftp) for recv_callback_tftp
    tftpserver.o(i.tftp_cleanup_rd) refers to tftpserver.o(.data) for UDPpcb
    tftpserver.o(i.tftp_cleanup_wr) refers to file.o(i.file_fclose) for file_fclose
    tftpserver.o(i.tftp_cleanup_wr) refers to fs.o(i.fs_umount) for fs_umount
    tftpserver.o(i.tftp_cleanup_wr) refers to mem.o(i.mem_free) for mem_free
    tftpserver.o(i.tftp_cleanup_wr) refers to udp.o(i.udp_disconnect) for udp_disconnect
    tftpserver.o(i.tftp_cleanup_wr) refers to udp.o(i.udp_remove) for udp_remove
    tftpserver.o(i.tftp_cleanup_wr) refers to udp.o(i.udp_recv) for udp_recv
    tftpserver.o(i.tftp_cleanup_wr) refers to tftpserver.o(.bss) for file_CR
    tftpserver.o(i.tftp_cleanup_wr) refers to tftpserver.o(i.recv_callback_tftp) for recv_callback_tftp
    tftpserver.o(i.tftp_cleanup_wr) refers to tftpserver.o(.data) for UDPpcb
    tftpserver.o(i.tftp_construct_error_message) refers to tftputils.o(i.tftp_set_opcode) for tftp_set_opcode
    tftpserver.o(i.tftp_construct_error_message) refers to tftputils.o(i.tftp_set_errorcode) for tftp_set_errorcode
    tftpserver.o(i.tftp_construct_error_message) refers to tftputils.o(i.tftp_set_errormsg) for tftp_set_errormsg
    tftpserver.o(i.tftp_construct_error_message) refers to strlen.o(.text) for strlen
    tftpserver.o(i.tftp_construct_error_message) refers to tftpserver.o(.data) for tftp_errorcode_string
    tftpserver.o(i.tftp_process_read) refers to file.o(i.file_fopen) for file_fopen
    tftpserver.o(i.tftp_process_read) refers to tftpserver.o(i.tftp_send_error_message) for tftp_send_error_message
    tftpserver.o(i.tftp_process_read) refers to tftpserver.o(i.tftp_cleanup_rd) for tftp_cleanup_rd
    tftpserver.o(i.tftp_process_read) refers to mem.o(i.mem_malloc) for mem_malloc
    tftpserver.o(i.tftp_process_read) refers to udp.o(i.udp_recv) for udp_recv
    tftpserver.o(i.tftp_process_read) refers to tftpserver.o(i.tftp_send_next_block) for tftp_send_next_block
    tftpserver.o(i.tftp_process_read) refers to tftpserver.o(.bss) for efs1
    tftpserver.o(i.tftp_process_read) refers to tftpserver.o(.data) for Timeoutargs
    tftpserver.o(i.tftp_process_read) refers to tftpserver.o(i.rrq_recv_callback) for rrq_recv_callback
    tftpserver.o(i.tftp_process_write) refers to file.o(i.file_fopen) for file_fopen
    tftpserver.o(i.tftp_process_write) refers to tftpserver.o(i.tftp_send_error_message) for tftp_send_error_message
    tftpserver.o(i.tftp_process_write) refers to tftpserver.o(i.tftp_cleanup_wr) for tftp_cleanup_wr
    tftpserver.o(i.tftp_process_write) refers to mem.o(i.mem_malloc) for mem_malloc
    tftpserver.o(i.tftp_process_write) refers to udp.o(i.udp_recv) for udp_recv
    tftpserver.o(i.tftp_process_write) refers to tftpserver.o(i.tftp_send_ack_packet) for tftp_send_ack_packet
    tftpserver.o(i.tftp_process_write) refers to tftpserver.o(.bss) for efs2
    tftpserver.o(i.tftp_process_write) refers to tftpserver.o(i.wrq_recv_callback) for wrq_recv_callback
    tftpserver.o(i.tftp_send_ack_packet) refers to tftputils.o(i.tftp_set_opcode) for tftp_set_opcode
    tftpserver.o(i.tftp_send_ack_packet) refers to tftputils.o(i.tftp_set_block) for tftp_set_block
    tftpserver.o(i.tftp_send_ack_packet) refers to tftpserver.o(i.tftp_send_message) for tftp_send_message
    tftpserver.o(i.tftp_send_data_packet) refers to tftputils.o(i.tftp_set_opcode) for tftp_set_opcode
    tftpserver.o(i.tftp_send_data_packet) refers to tftputils.o(i.tftp_set_block) for tftp_set_block
    tftpserver.o(i.tftp_send_data_packet) refers to tftputils.o(i.tftp_set_data_message) for tftp_set_data_message
    tftpserver.o(i.tftp_send_data_packet) refers to tftpserver.o(i.tftp_send_message) for tftp_send_message
    tftpserver.o(i.tftp_send_error_message) refers to tftpserver.o(i.tftp_construct_error_message) for tftp_construct_error_message
    tftpserver.o(i.tftp_send_error_message) refers to tftpserver.o(i.tftp_send_message) for tftp_send_message
    tftpserver.o(i.tftp_send_message) refers to pbuf.o(i.pbuf_alloc) for pbuf_alloc
    tftpserver.o(i.tftp_send_message) refers to memcpya.o(.text) for __aeabi_memcpy
    tftpserver.o(i.tftp_send_message) refers to udp.o(i.udp_sendto) for udp_sendto
    tftpserver.o(i.tftp_send_message) refers to pbuf.o(i.pbuf_free) for pbuf_free
    tftpserver.o(i.tftp_send_next_block) refers to file.o(i.file_read) for file_read
    tftpserver.o(i.tftp_send_next_block) refers to tftpserver.o(i.tftp_send_data_packet) for tftp_send_data_packet
    tftpserver.o(i.tftp_send_next_block) refers to tftpserver.o(.bss) for file_SD
    tftpserver.o(i.tftpd_init) refers to udp.o(i.udp_new) for udp_new
    tftpserver.o(i.tftpd_init) refers to udp.o(i.udp_bind) for udp_bind
    tftpserver.o(i.tftpd_init) refers to udp.o(i.udp_recv) for udp_recv
    tftpserver.o(i.tftpd_init) refers to tftpserver.o(.data) for UDPpcb
    tftpserver.o(i.tftpd_init) refers to ip_addr.o(.constdata) for ip_addr_any
    tftpserver.o(i.tftpd_init) refers to tftpserver.o(i.recv_callback_tftp) for recv_callback_tftp
    tftpserver.o(i.wrq_recv_callback) refers to tftputils.o(i.tftp_extract_block) for tftp_extract_block
    tftpserver.o(i.wrq_recv_callback) refers to file.o(i.file_write) for file_write
    tftpserver.o(i.wrq_recv_callback) refers to tftpserver.o(i.tftp_send_error_message) for tftp_send_error_message
    tftpserver.o(i.wrq_recv_callback) refers to tftpserver.o(i.tftp_cleanup_wr) for tftp_cleanup_wr
    tftpserver.o(i.wrq_recv_callback) refers to tftpserver.o(i.tftp_send_ack_packet) for tftp_send_ack_packet
    tftpserver.o(i.wrq_recv_callback) refers to pbuf.o(i.pbuf_free) for pbuf_free
    tftpserver.o(i.wrq_recv_callback) refers to tftpserver.o(.bss) for file_CR
    tftpserver.o(.data) refers to tftpserver.o(.conststring) for .conststring
    tftputils.o(i.tftp_extract_block) refers to def.o(i.lwip_ntohs) for lwip_ntohs
    tftputils.o(i.tftp_extract_filename) refers to strcpy.o(.text) for strcpy
    tftputils.o(i.tftp_is_correct_ack) refers to tftputils.o(i.tftp_decode_op) for tftp_decode_op
    tftputils.o(i.tftp_is_correct_ack) refers to tftputils.o(i.tftp_extract_block) for tftp_extract_block
    tftputils.o(i.tftp_set_block) refers to def.o(i.lwip_htons) for lwip_htons
    tftputils.o(i.tftp_set_data_message) refers to memcpya.o(.text) for __aeabi_memcpy
    tftputils.o(i.tftp_set_errormsg) refers to strcpy.o(.text) for strcpy
    ds18b20srom.o(i.DS1820main) refers to ds18b20srom.o(i.Delay_init) for Delay_init
    ds18b20srom.o(i.DS1820main) refers to ds18b20srom.o(i.Init_DS18B20_IO) for Init_DS18B20_IO
    ds18b20srom.o(i.DS1820main) refers to ds18b20sech.o(i.OWFirst) for OWFirst
    ds18b20srom.o(i.DS1820main) refers to ds18b20sech.o(i.GetRomAddr) for GetRomAddr
    ds18b20srom.o(i.DS1820main) refers to ds18b20sech.o(i.OWSearch) for OWSearch
    ds18b20srom.o(i.DS1820main) refers to ds18b20srom.o(i.DS18B20_ReadDesignateTemper) for DS18B20_ReadDesignateTemper
    ds18b20srom.o(i.DS1820main) refers to ds18b20srom.o(.data) for fistsech
    ds18b20srom.o(i.DS1820main) refers to ds18b20srom.o(.bss) for ID_Buff
    ds18b20srom.o(i.DS18B20_Read2Bit) refers to ds18b20srom.o(i.DS18B20_ReadBit) for DS18B20_ReadBit
    ds18b20srom.o(i.DS18B20_ReadData) refers to ds18b20srom.o(i.DS18B20_ReadBit) for DS18B20_ReadBit
    ds18b20srom.o(i.DS18B20_ReadDesignateTemper) refers to ds18b20srom.o(i.DS18B20_Reset) for DS18B20_Reset
    ds18b20srom.o(i.DS18B20_ReadDesignateTemper) refers to ds18b20srom.o(i.DS18B20_WriteData) for DS18B20_WriteData
    ds18b20srom.o(i.DS18B20_ReadDesignateTemper) refers to ds18b20srom.o(i.Delay_us) for Delay_us
    ds18b20srom.o(i.DS18B20_ReadDesignateTemper) refers to ds18b20srom.o(i.DS18B20_ReadData) for DS18B20_ReadData
    ds18b20srom.o(i.DS18B20_ReadDesignateTemper) refers to dflti.o(.text) for __aeabi_i2d
    ds18b20srom.o(i.DS18B20_ReadDesignateTemper) refers to dmul.o(.text) for __aeabi_dmul
    ds18b20srom.o(i.DS18B20_ReadDesignateTemper) refers to dfixi.o(.text) for __aeabi_d2iz
    ds18b20srom.o(i.DS18B20_ReadTemper) refers to ds18b20srom.o(i.DS18B20_Reset) for DS18B20_Reset
    ds18b20srom.o(i.DS18B20_ReadTemper) refers to ds18b20srom.o(i.DS18B20_WriteData) for DS18B20_WriteData
    ds18b20srom.o(i.DS18B20_ReadTemper) refers to ds18b20srom.o(i.DS18B20_ReadData) for DS18B20_ReadData
    ds18b20srom.o(i.DS18B20_ReadTemper) refers to dflti.o(.text) for __aeabi_i2d
    ds18b20srom.o(i.DS18B20_ReadTemper) refers to dmul.o(.text) for __aeabi_dmul
    ds18b20srom.o(i.DS18B20_ReadTemper) refers to dfixi.o(.text) for __aeabi_d2iz
    ds18b20srom.o(i.DS18B20_Reset) refers to ds18b20srom.o(i.Set18b20IOout) for Set18b20IOout
    ds18b20srom.o(i.DS18B20_Reset) refers to ds18b20srom.o(i.Write18b20IO) for Write18b20IO
    ds18b20srom.o(i.DS18B20_Reset) refers to ds18b20srom.o(i.Delay_us) for Delay_us
    ds18b20srom.o(i.DS18B20_Reset) refers to ds18b20srom.o(i.Set18b20IOin) for Set18b20IOin
    ds18b20srom.o(i.DS18B20_Reset) refers to stm32f10x_gpio.o(i.GPIO_ReadInputDataBit) for GPIO_ReadInputDataBit
    ds18b20srom.o(i.DS18B20_SearchROM) refers to ds18b20srom.o(i.DS18B20_Reset) for DS18B20_Reset
    ds18b20srom.o(i.DS18B20_SearchROM) refers to ds18b20srom.o(i.DS18B20_WriteData) for DS18B20_WriteData
    ds18b20srom.o(i.DS18B20_SearchROM) refers to ds18b20srom.o(i.DS18B20_Read2Bit) for DS18B20_Read2Bit
    ds18b20srom.o(i.DS18B20_SearchROM) refers to ds18b20srom.o(i.DS18B20_WriteBit) for DS18B20_WriteBit
    ds18b20srom.o(i.DS18B20_WriteBit) refers to ds18b20srom.o(i.Set18b20IOout) for Set18b20IOout
    ds18b20srom.o(i.DS18B20_WriteBit) refers to ds18b20srom.o(i.Write18b20IO) for Write18b20IO
    ds18b20srom.o(i.DS18B20_WriteBit) refers to ds18b20srom.o(i.Delay_us) for Delay_us
    ds18b20srom.o(i.DS18B20_WriteData) refers to ds18b20srom.o(i.DS18B20_WriteBit) for DS18B20_WriteBit
    ds18b20srom.o(i.Delay_init) refers to ds18b20srom.o(.data) for fac_us
    ds18b20srom.o(i.Delay_ms) refers to ds18b20srom.o(.data) for fac_ms
    ds18b20srom.o(i.Delay_us) refers to ds18b20srom.o(.data) for fac_us
    ds18b20srom.o(i.Init_DS18B20_IO) refers to stm32f10x_rcc.o(i.RCC_APB2PeriphClockCmd) for RCC_APB2PeriphClockCmd
    ds18b20srom.o(i.Init_DS18B20_IO) refers to stm32f10x_gpio.o(i.GPIO_Init) for GPIO_Init
    ds18b20srom.o(i.Set18b20IOin) refers to stm32f10x_rcc.o(i.RCC_APB2PeriphClockCmd) for RCC_APB2PeriphClockCmd
    ds18b20srom.o(i.Set18b20IOin) refers to stm32f10x_gpio.o(i.GPIO_Init) for GPIO_Init
    ds18b20srom.o(i.Set18b20IOout) refers to stm32f10x_rcc.o(i.RCC_APB2PeriphClockCmd) for RCC_APB2PeriphClockCmd
    ds18b20srom.o(i.Set18b20IOout) refers to stm32f10x_gpio.o(i.GPIO_Init) for GPIO_Init
    ds18b20srom.o(i.TemperatureThread) refers to filesystem.o(i.FS_Write) for FS_Write
    ds18b20srom.o(i.TemperatureThread) refers to ds18b20srom.o(i.DS1820main) for DS1820main
    ds18b20srom.o(i.TemperatureThread) refers to filesystem.o(i.FS_Writehtml) for FS_Writehtml
    ds18b20srom.o(i.TemperatureThread) refers to ds18b20srom.o(.data) for time_run
    ds18b20srom.o(i.TemperatureThread) refers to ds18b20srom.o(.bss) for temp
    ds18b20srom.o(i.Write18b20IO) refers to stm32f10x_gpio.o(i.GPIO_SetBits) for GPIO_SetBits
    ds18b20srom.o(i.Write18b20IO) refers to stm32f10x_gpio.o(i.GPIO_ResetBits) for GPIO_ResetBits
    ds18b20sech.o(i.GetRomAddr) refers to ds18b20sech.o(.data) for ROM_NO
    ds18b20sech.o(i.OWFamilySkipSetup) refers to ds18b20sech.o(.data) for LastFamilyDiscrepancy
    ds18b20sech.o(i.OWFirst) refers to ds18b20sech.o(i.OWSearch) for OWSearch
    ds18b20sech.o(i.OWFirst) refers to ds18b20sech.o(.data) for LastDiscrepancy
    ds18b20sech.o(i.OWNext) refers to ds18b20sech.o(i.OWSearch) for OWSearch
    ds18b20sech.o(i.OWReadBit) refers to ds18b20srom.o(i.DS18B20_ReadBit) for DS18B20_ReadBit
    ds18b20sech.o(i.OWReset) refers to ds18b20srom.o(i.DS18B20_Reset) for DS18B20_Reset
    ds18b20sech.o(i.OWSearch) refers to ds18b20sech.o(i.OWReset) for OWReset
    ds18b20sech.o(i.OWSearch) refers to ds18b20sech.o(i.OWWriteByte) for OWWriteByte
    ds18b20sech.o(i.OWSearch) refers to ds18b20sech.o(i.OWReadBit) for OWReadBit
    ds18b20sech.o(i.OWSearch) refers to ds18b20sech.o(i.OWWriteBit) for OWWriteBit
    ds18b20sech.o(i.OWSearch) refers to ds18b20sech.o(i.docrc8) for docrc8
    ds18b20sech.o(i.OWSearch) refers to ds18b20sech.o(.data) for crc8
    ds18b20sech.o(i.OWTargetSetup) refers to ds18b20sech.o(.data) for ROM_NO
    ds18b20sech.o(i.OWVerify) refers to ds18b20sech.o(i.OWSearch) for OWSearch
    ds18b20sech.o(i.OWVerify) refers to ds18b20sech.o(.data) for ROM_NO
    ds18b20sech.o(i.OWWriteBit) refers to ds18b20srom.o(i.DS18B20_WriteBit) for DS18B20_WriteBit
    ds18b20sech.o(i.OWWriteByte) refers to ds18b20srom.o(i.DS18B20_WriteData) for DS18B20_WriteData
    ds18b20sech.o(i.docrc8) refers to ds18b20sech.o(.data) for crc8
    stm32f10x_adc.o(i.ADC_DeInit) refers to stm32f10x_rcc.o(i.RCC_APB2PeriphResetCmd) for RCC_APB2PeriphResetCmd
    stm32f10x_bkp.o(i.BKP_DeInit) refers to stm32f10x_rcc.o(i.RCC_BackupResetCmd) for RCC_BackupResetCmd
    stm32f10x_can.o(i.CAN_DeInit) refers to stm32f10x_rcc.o(i.RCC_APB1PeriphResetCmd) for RCC_APB1PeriphResetCmd
    stm32f10x_can.o(i.CAN_GetITStatus) refers to stm32f10x_can.o(i.CheckITStatus) for CheckITStatus
    stm32f10x_can.o(i.CAN_Receive) refers to stm32f10x_can.o(i.CAN_FIFORelease) for CAN_FIFORelease
    stm32f10x_dac.o(i.DAC_DeInit) refers to stm32f10x_rcc.o(i.RCC_APB1PeriphResetCmd) for RCC_APB1PeriphResetCmd
    stm32f10x_flash.o(i.FLASH_EnableWriteProtection) refers to stm32f10x_flash.o(i.FLASH_WaitForLastOperation) for FLASH_WaitForLastOperation
    stm32f10x_flash.o(i.FLASH_EraseAllPages) refers to stm32f10x_flash.o(i.FLASH_WaitForLastOperation) for FLASH_WaitForLastOperation
    stm32f10x_flash.o(i.FLASH_EraseOptionBytes) refers to stm32f10x_flash.o(i.FLASH_WaitForLastOperation) for FLASH_WaitForLastOperation
    stm32f10x_flash.o(i.FLASH_ErasePage) refers to stm32f10x_flash.o(i.FLASH_WaitForLastOperation) for FLASH_WaitForLastOperation
    stm32f10x_flash.o(i.FLASH_ProgramHalfWord) refers to stm32f10x_flash.o(i.FLASH_WaitForLastOperation) for FLASH_WaitForLastOperation
    stm32f10x_flash.o(i.FLASH_ProgramOptionByteData) refers to stm32f10x_flash.o(i.FLASH_WaitForLastOperation) for FLASH_WaitForLastOperation
    stm32f10x_flash.o(i.FLASH_ProgramWord) refers to stm32f10x_flash.o(i.FLASH_WaitForLastOperation) for FLASH_WaitForLastOperation
    stm32f10x_flash.o(i.FLASH_ReadOutProtection) refers to stm32f10x_flash.o(i.FLASH_WaitForLastOperation) for FLASH_WaitForLastOperation
    stm32f10x_flash.o(i.FLASH_UserOptionByteConfig) refers to stm32f10x_flash.o(i.FLASH_WaitForLastOperation) for FLASH_WaitForLastOperation
    stm32f10x_flash.o(i.FLASH_WaitForLastOperation) refers to stm32f10x_flash.o(i.FLASH_GetStatus) for FLASH_GetStatus
    stm32f10x_flash.o(i.FLASH_WaitForLastOperation) refers to stm32f10x_flash.o(i.delay) for delay
    stm32f10x_gpio.o(i.GPIO_AFIODeInit) refers to stm32f10x_rcc.o(i.RCC_APB2PeriphResetCmd) for RCC_APB2PeriphResetCmd
    stm32f10x_gpio.o(i.GPIO_DeInit) refers to stm32f10x_rcc.o(i.RCC_APB2PeriphResetCmd) for RCC_APB2PeriphResetCmd
    stm32f10x_i2c.o(i.I2C_DeInit) refers to stm32f10x_rcc.o(i.RCC_APB1PeriphResetCmd) for RCC_APB1PeriphResetCmd
    stm32f10x_i2c.o(i.I2C_Init) refers to stm32f10x_rcc.o(i.RCC_GetClocksFreq) for RCC_GetClocksFreq
    stm32f10x_pwr.o(i.PWR_DeInit) refers to stm32f10x_rcc.o(i.RCC_APB1PeriphResetCmd) for RCC_APB1PeriphResetCmd
    stm32f10x_rcc.o(i.RCC_GetClocksFreq) refers to stm32f10x_rcc.o(.data) for APBAHBPrescTable
    stm32f10x_rcc.o(i.RCC_WaitForHSEStartUp) refers to stm32f10x_rcc.o(i.RCC_GetFlagStatus) for RCC_GetFlagStatus
    stm32f10x_rtc.o(i.RTC_SetAlarm) refers to stm32f10x_rtc.o(i.RTC_EnterConfigMode) for RTC_EnterConfigMode
    stm32f10x_rtc.o(i.RTC_SetAlarm) refers to stm32f10x_rtc.o(i.RTC_ExitConfigMode) for RTC_ExitConfigMode
    stm32f10x_rtc.o(i.RTC_SetCounter) refers to stm32f10x_rtc.o(i.RTC_EnterConfigMode) for RTC_EnterConfigMode
    stm32f10x_rtc.o(i.RTC_SetCounter) refers to stm32f10x_rtc.o(i.RTC_ExitConfigMode) for RTC_ExitConfigMode
    stm32f10x_rtc.o(i.RTC_SetPrescaler) refers to stm32f10x_rtc.o(i.RTC_EnterConfigMode) for RTC_EnterConfigMode
    stm32f10x_rtc.o(i.RTC_SetPrescaler) refers to stm32f10x_rtc.o(i.RTC_ExitConfigMode) for RTC_ExitConfigMode
    stm32f10x_spi.o(i.I2S_Init) refers to stm32f10x_rcc.o(i.RCC_GetClocksFreq) for RCC_GetClocksFreq
    stm32f10x_spi.o(i.SPI_I2S_DeInit) refers to stm32f10x_rcc.o(i.RCC_APB2PeriphResetCmd) for RCC_APB2PeriphResetCmd
    stm32f10x_spi.o(i.SPI_I2S_DeInit) refers to stm32f10x_rcc.o(i.RCC_APB1PeriphResetCmd) for RCC_APB1PeriphResetCmd
    stm32f10x_tim.o(i.TIM_DeInit) refers to stm32f10x_rcc.o(i.RCC_APB2PeriphResetCmd) for RCC_APB2PeriphResetCmd
    stm32f10x_tim.o(i.TIM_DeInit) refers to stm32f10x_rcc.o(i.RCC_APB1PeriphResetCmd) for RCC_APB1PeriphResetCmd
    stm32f10x_tim.o(i.TIM_ETRClockMode1Config) refers to stm32f10x_tim.o(i.TIM_ETRConfig) for TIM_ETRConfig
    stm32f10x_tim.o(i.TIM_ETRClockMode2Config) refers to stm32f10x_tim.o(i.TIM_ETRConfig) for TIM_ETRConfig
    stm32f10x_tim.o(i.TIM_ICInit) refers to stm32f10x_tim.o(i.TI1_Config) for TI1_Config
    stm32f10x_tim.o(i.TIM_ICInit) refers to stm32f10x_tim.o(i.TIM_SetIC1Prescaler) for TIM_SetIC1Prescaler
    stm32f10x_tim.o(i.TIM_ICInit) refers to stm32f10x_tim.o(i.TI2_Config) for TI2_Config
    stm32f10x_tim.o(i.TIM_ICInit) refers to stm32f10x_tim.o(i.TIM_SetIC2Prescaler) for TIM_SetIC2Prescaler
    stm32f10x_tim.o(i.TIM_ICInit) refers to stm32f10x_tim.o(i.TI3_Config) for TI3_Config
    stm32f10x_tim.o(i.TIM_ICInit) refers to stm32f10x_tim.o(i.TIM_SetIC3Prescaler) for TIM_SetIC3Prescaler
    stm32f10x_tim.o(i.TIM_ICInit) refers to stm32f10x_tim.o(i.TI4_Config) for TI4_Config
    stm32f10x_tim.o(i.TIM_ICInit) refers to stm32f10x_tim.o(i.TIM_SetIC4Prescaler) for TIM_SetIC4Prescaler
    stm32f10x_tim.o(i.TIM_ITRxExternalClockConfig) refers to stm32f10x_tim.o(i.TIM_SelectInputTrigger) for TIM_SelectInputTrigger
    stm32f10x_tim.o(i.TIM_PWMIConfig) refers to stm32f10x_tim.o(i.TI1_Config) for TI1_Config
    stm32f10x_tim.o(i.TIM_PWMIConfig) refers to stm32f10x_tim.o(i.TIM_SetIC1Prescaler) for TIM_SetIC1Prescaler
    stm32f10x_tim.o(i.TIM_PWMIConfig) refers to stm32f10x_tim.o(i.TI2_Config) for TI2_Config
    stm32f10x_tim.o(i.TIM_PWMIConfig) refers to stm32f10x_tim.o(i.TIM_SetIC2Prescaler) for TIM_SetIC2Prescaler
    stm32f10x_tim.o(i.TIM_TIxExternalClockConfig) refers to stm32f10x_tim.o(i.TI2_Config) for TI2_Config
    stm32f10x_tim.o(i.TIM_TIxExternalClockConfig) refers to stm32f10x_tim.o(i.TI1_Config) for TI1_Config
    stm32f10x_tim.o(i.TIM_TIxExternalClockConfig) refers to stm32f10x_tim.o(i.TIM_SelectInputTrigger) for TIM_SelectInputTrigger
    stm32f10x_usart.o(i.USART_DeInit) refers to stm32f10x_rcc.o(i.RCC_APB2PeriphResetCmd) for RCC_APB2PeriphResetCmd
    stm32f10x_usart.o(i.USART_DeInit) refers to stm32f10x_rcc.o(i.RCC_APB1PeriphResetCmd) for RCC_APB1PeriphResetCmd
    stm32f10x_usart.o(i.USART_Init) refers to stm32f10x_rcc.o(i.RCC_GetClocksFreq) for RCC_GetClocksFreq
    stm32f10x_wwdg.o(i.WWDG_DeInit) refers to stm32f10x_rcc.o(i.RCC_APB1PeriphResetCmd) for RCC_APB1PeriphResetCmd
    stm32_eth.o(i.ETH_DMAPTPRxDescChainInit) refers to stm32_eth.o(.data) for DMARxDescToGet
    stm32_eth.o(i.ETH_DMAPTPTxDescChainInit) refers to stm32_eth.o(.data) for DMATxDescToSet
    stm32_eth.o(i.ETH_DMARxDescChainInit) refers to stm32_eth.o(.data) for DMARxDescToGet
    stm32_eth.o(i.ETH_DMARxDescRingInit) refers to stm32_eth.o(.data) for DMARxDescToGet
    stm32_eth.o(i.ETH_DMATxDescChainInit) refers to stm32_eth.o(.data) for DMATxDescToSet
    stm32_eth.o(i.ETH_DMATxDescRingInit) refers to stm32_eth.o(.data) for DMATxDescToSet
    stm32_eth.o(i.ETH_DeInit) refers to stm32f10x_rcc.o(i.RCC_AHBPeriphResetCmd) for RCC_AHBPeriphResetCmd
    stm32_eth.o(i.ETH_DropRxPkt) refers to stm32_eth.o(.data) for DMARxDescToGet
    stm32_eth.o(i.ETH_GetRxPktSize) refers to stm32_eth.o(i.ETH_GetDMARxDescFrameLength) for ETH_GetDMARxDescFrameLength
    stm32_eth.o(i.ETH_GetRxPktSize) refers to stm32_eth.o(.data) for DMARxDescToGet
    stm32_eth.o(i.ETH_HandlePTPRxPkt) refers to stm32_eth.o(.data) for DMARxDescToGet
    stm32_eth.o(i.ETH_HandlePTPTxPkt) refers to stm32_eth.o(.data) for DMATxDescToSet
    stm32_eth.o(i.ETH_HandleRxPkt) refers to stm32_eth.o(.data) for DMARxDescToGet
    stm32_eth.o(i.ETH_HandleTxPkt) refers to stm32_eth.o(.data) for DMATxDescToSet
    stm32_eth.o(i.ETH_Init) refers to stm32f10x_rcc.o(i.RCC_GetClocksFreq) for RCC_GetClocksFreq
    stm32_eth.o(i.ETH_Init) refers to stm32_eth.o(i.ETH_WritePHYRegister) for ETH_WritePHYRegister
    stm32_eth.o(i.ETH_Init) refers to stm32_eth.o(i.ETH_Delay) for ETH_Delay
    stm32_eth.o(i.ETH_Init) refers to stm32_eth.o(i.ETH_ReadPHYRegister) for ETH_ReadPHYRegister
    stm32_eth.o(i.ETH_PHYLoopBackCmd) refers to stm32_eth.o(i.ETH_ReadPHYRegister) for ETH_ReadPHYRegister
    stm32_eth.o(i.ETH_PHYLoopBackCmd) refers to stm32_eth.o(i.ETH_WritePHYRegister) for ETH_WritePHYRegister
    stm32_eth.o(i.ETH_Start) refers to stm32_eth.o(i.ETH_MACTransmissionCmd) for ETH_MACTransmissionCmd
    stm32_eth.o(i.ETH_Start) refers to stm32_eth.o(i.ETH_FlushTransmitFIFO) for ETH_FlushTransmitFIFO
    stm32_eth.o(i.ETH_Start) refers to stm32_eth.o(i.ETH_MACReceptionCmd) for ETH_MACReceptionCmd
    stm32_eth.o(i.ETH_Start) refers to stm32_eth.o(i.ETH_DMATransmissionCmd) for ETH_DMATransmissionCmd
    stm32_eth.o(i.ETH_Start) refers to stm32_eth.o(i.ETH_DMAReceptionCmd) for ETH_DMAReceptionCmd
    def.o(i.lwip_ntohl) refers to def.o(i.lwip_htonl) for lwip_htonl
    def.o(i.lwip_ntohs) refers to def.o(i.lwip_htons) for lwip_htons
    init.o(i.lwip_init) refers to stats.o(i.stats_init) for stats_init
    init.o(i.lwip_init) refers to mem.o(i.mem_init) for mem_init
    init.o(i.lwip_init) refers to memp.o(i.memp_init) for memp_init
    init.o(i.lwip_init) refers to netif.o(i.netif_init) for netif_init
    init.o(i.lwip_init) refers to udp.o(i.udp_init) for udp_init
    init.o(i.lwip_init) refers to tcp.o(i.tcp_init) for tcp_init
    mem.o(i.mem_calloc) refers to mem.o(i.mem_malloc) for mem_malloc
    mem.o(i.mem_calloc) refers to memseta.o(.text) for __aeabi_memclr
    mem.o(i.mem_free) refers to mem.o(i.plug_holes) for plug_holes
    mem.o(i.mem_free) refers to mem.o(.data) for ram
    mem.o(i.mem_free) refers to stats.o(.bss) for lwip_stats
    mem.o(i.mem_init) refers to mem.o(.bss) for ram_heap
    mem.o(i.mem_init) refers to mem.o(.data) for ram
    mem.o(i.mem_init) refers to stats.o(.bss) for lwip_stats
    mem.o(i.mem_malloc) refers to mem.o(.data) for lfree
    mem.o(i.mem_malloc) refers to stats.o(.bss) for lwip_stats
    mem.o(i.mem_trim) refers to mem.o(.data) for ram
    mem.o(i.mem_trim) refers to stats.o(.bss) for lwip_stats
    mem.o(i.plug_holes) refers to mem.o(.data) for ram
    memp.o(i.memp_free) refers to memp.o(.data) for mf
    memp.o(i.memp_free) refers to stats.o(.bss) for lwip_stats
    memp.o(i.memp_free) refers to memp.o(.bss) for memp_tab
    memp.o(i.memp_init) refers to stats.o(.bss) for lwip_stats
    memp.o(i.memp_init) refers to memp.o(.constdata) for memp_num
    memp.o(i.memp_init) refers to memp.o(.bss) for memp_memory
    memp.o(i.memp_malloc) refers to memp.o(.bss) for memp_tab
    memp.o(i.memp_malloc) refers to memp.o(.data) for mf
    memp.o(i.memp_malloc) refers to stats.o(.bss) for lwip_stats
    netif.o(i.netif_add) refers to netif.o(i.netif_set_addr) for netif_set_addr
    netif.o(i.netif_add) refers to netif.o(.data) for netif_num
    netif.o(i.netif_find) refers to netif.o(.data) for netif_list
    netif.o(i.netif_remove) refers to netif.o(i.netif_set_down) for netif_set_down
    netif.o(i.netif_remove) refers to netif.o(i.netif_set_default) for netif_set_default
    netif.o(i.netif_remove) refers to netif.o(.data) for netif_list
    netif.o(i.netif_set_addr) refers to netif.o(i.netif_set_ipaddr) for netif_set_ipaddr
    netif.o(i.netif_set_addr) refers to netif.o(i.netif_set_netmask) for netif_set_netmask
    netif.o(i.netif_set_addr) refers to netif.o(i.netif_set_gw) for netif_set_gw
    netif.o(i.netif_set_default) refers to netif.o(.data) for netif_default
    netif.o(i.netif_set_down) refers to etharp.o(i.etharp_cleanup_netif) for etharp_cleanup_netif
    netif.o(i.netif_set_ipaddr) refers to tcp.o(i.tcp_abort) for tcp_abort
    netif.o(i.netif_set_ipaddr) refers to tcp.o(.data) for tcp_active_pcbs
    netif.o(i.netif_set_link_up) refers to etharp.o(i.etharp_request) for etharp_request
    netif.o(i.netif_set_up) refers to etharp.o(i.etharp_request) for etharp_request
    pbuf.o(i.pbuf_alloc) refers to memp.o(i.memp_malloc) for memp_malloc
    pbuf.o(i.pbuf_alloc) refers to pbuf.o(i.pbuf_free) for pbuf_free
    pbuf.o(i.pbuf_alloc) refers to mem.o(i.mem_malloc) for mem_malloc
    pbuf.o(i.pbuf_chain) refers to pbuf.o(i.pbuf_cat) for pbuf_cat
    pbuf.o(i.pbuf_chain) refers to pbuf.o(i.pbuf_ref) for pbuf_ref
    pbuf.o(i.pbuf_coalesce) refers to pbuf.o(i.pbuf_alloc) for pbuf_alloc
    pbuf.o(i.pbuf_coalesce) refers to pbuf.o(i.pbuf_copy) for pbuf_copy
    pbuf.o(i.pbuf_coalesce) refers to pbuf.o(i.pbuf_free) for pbuf_free
    pbuf.o(i.pbuf_copy) refers to memcpya.o(.text) for __aeabi_memcpy
    pbuf.o(i.pbuf_copy_partial) refers to memcpya.o(.text) for __aeabi_memcpy
    pbuf.o(i.pbuf_dechain) refers to pbuf.o(i.pbuf_free) for pbuf_free
    pbuf.o(i.pbuf_free) refers to memp.o(i.memp_free) for memp_free
    pbuf.o(i.pbuf_free) refers to mem.o(i.mem_free) for mem_free
    pbuf.o(i.pbuf_memcmp) refers to pbuf.o(i.pbuf_get_at) for pbuf_get_at
    pbuf.o(i.pbuf_memfind) refers to pbuf.o(i.pbuf_memcmp) for pbuf_memcmp
    pbuf.o(i.pbuf_realloc) refers to mem.o(i.mem_trim) for mem_trim
    pbuf.o(i.pbuf_realloc) refers to pbuf.o(i.pbuf_free) for pbuf_free
    pbuf.o(i.pbuf_strstr) refers to strlen.o(.text) for strlen
    pbuf.o(i.pbuf_strstr) refers to pbuf.o(i.pbuf_memfind) for pbuf_memfind
    pbuf.o(i.pbuf_take) refers to memcpya.o(.text) for __aeabi_memcpy
    raw.o(i.raw_input) refers to raw.o(.data) for raw_pcbs
    raw.o(i.raw_input) refers to ip.o(.data) for current_iphdr_dest
    raw.o(i.raw_new) refers to memp.o(i.memp_malloc) for memp_malloc
    raw.o(i.raw_new) refers to memseta.o(.text) for __aeabi_memclr4
    raw.o(i.raw_new) refers to raw.o(.data) for raw_pcbs
    raw.o(i.raw_remove) refers to memp.o(i.memp_free) for memp_free
    raw.o(i.raw_remove) refers to raw.o(.data) for raw_pcbs
    raw.o(i.raw_send) refers to raw.o(i.raw_sendto) for raw_sendto
    raw.o(i.raw_sendto) refers to pbuf.o(i.pbuf_header) for pbuf_header
    raw.o(i.raw_sendto) refers to pbuf.o(i.pbuf_alloc) for pbuf_alloc
    raw.o(i.raw_sendto) refers to pbuf.o(i.pbuf_chain) for pbuf_chain
    raw.o(i.raw_sendto) refers to ip.o(i.ip_route) for ip_route
    raw.o(i.raw_sendto) refers to pbuf.o(i.pbuf_free) for pbuf_free
    raw.o(i.raw_sendto) refers to ip.o(i.ip_output_if) for ip_output_if
    tcp.o(i.tcp_abandon) refers to tcp.o(i.tcp_pcb_remove) for tcp_pcb_remove
    tcp.o(i.tcp_abandon) refers to memp.o(i.memp_free) for memp_free
    tcp.o(i.tcp_abandon) refers to tcp.o(i.tcp_segs_free) for tcp_segs_free
    tcp.o(i.tcp_abandon) refers to tcp_out.o(i.tcp_rst) for tcp_rst
    tcp.o(i.tcp_abandon) refers to tcp.o(.data) for tcp_tw_pcbs
    tcp.o(i.tcp_abort) refers to tcp.o(i.tcp_abandon) for tcp_abandon
    tcp.o(i.tcp_alloc) refers to memp.o(i.memp_malloc) for memp_malloc
    tcp.o(i.tcp_alloc) refers to tcp.o(i.tcp_kill_timewait) for tcp_kill_timewait
    tcp.o(i.tcp_alloc) refers to tcp.o(i.tcp_kill_prio) for tcp_kill_prio
    tcp.o(i.tcp_alloc) refers to memseta.o(.text) for __aeabi_memclr4
    tcp.o(i.tcp_alloc) refers to tcp.o(i.tcp_next_iss) for tcp_next_iss
    tcp.o(i.tcp_alloc) refers to tcp.o(.data) for tcp_active_pcbs
    tcp.o(i.tcp_alloc) refers to stats.o(.bss) for lwip_stats
    tcp.o(i.tcp_alloc) refers to tcp.o(i.tcp_recv_null) for tcp_recv_null
    tcp.o(i.tcp_bind) refers to tcp.o(i.tcp_new_port) for tcp_new_port
    tcp.o(i.tcp_bind) refers to timers.o(i.tcp_timer_needed) for tcp_timer_needed
    tcp.o(i.tcp_bind) refers to tcp.o(.constdata) for tcp_pcb_lists
    tcp.o(i.tcp_bind) refers to tcp.o(.data) for tcp_bound_pcbs
    tcp.o(i.tcp_close) refers to tcp.o(i.tcp_close_shutdown) for tcp_close_shutdown
    tcp.o(i.tcp_close_shutdown) refers to tcp_out.o(i.tcp_rst) for tcp_rst
    tcp.o(i.tcp_close_shutdown) refers to tcp.o(i.tcp_pcb_purge) for tcp_pcb_purge
    tcp.o(i.tcp_close_shutdown) refers to timers.o(i.tcp_timer_needed) for tcp_timer_needed
    tcp.o(i.tcp_close_shutdown) refers to memp.o(i.memp_free) for memp_free
    tcp.o(i.tcp_close_shutdown) refers to tcp.o(i.tcp_pcb_remove) for tcp_pcb_remove
    tcp.o(i.tcp_close_shutdown) refers to tcp_out.o(i.tcp_send_fin) for tcp_send_fin
    tcp.o(i.tcp_close_shutdown) refers to tcp_out.o(i.tcp_output) for tcp_output
    tcp.o(i.tcp_close_shutdown) refers to tcp.o(.data) for tcp_active_pcbs
    tcp.o(i.tcp_connect) refers to ip.o(i.ip_route) for ip_route
    tcp.o(i.tcp_connect) refers to tcp.o(i.tcp_new_port) for tcp_new_port
    tcp.o(i.tcp_connect) refers to tcp.o(i.tcp_next_iss) for tcp_next_iss
    tcp.o(i.tcp_connect) refers to tcp.o(i.tcp_eff_send_mss) for tcp_eff_send_mss
    tcp.o(i.tcp_connect) refers to tcp_out.o(i.tcp_enqueue_flags) for tcp_enqueue_flags
    tcp.o(i.tcp_connect) refers to timers.o(i.tcp_timer_needed) for tcp_timer_needed
    tcp.o(i.tcp_connect) refers to tcp_out.o(i.tcp_output) for tcp_output
    tcp.o(i.tcp_connect) refers to tcp.o(.data) for tcp_bound_pcbs
    tcp.o(i.tcp_debug_state_str) refers to tcp.o(.constdata) for tcp_state_str
    tcp.o(i.tcp_eff_send_mss) refers to ip.o(i.ip_route) for ip_route
    tcp.o(i.tcp_fasttmr) refers to tcp_out.o(i.tcp_output) for tcp_output
    tcp.o(i.tcp_fasttmr) refers to tcp.o(i.tcp_process_refused_data) for tcp_process_refused_data
    tcp.o(i.tcp_fasttmr) refers to tcp.o(.data) for tcp_timer_ctr
    tcp.o(i.tcp_kill_prio) refers to tcp.o(i.tcp_abort) for tcp_abort
    tcp.o(i.tcp_kill_prio) refers to tcp.o(.data) for tcp_active_pcbs
    tcp.o(i.tcp_kill_timewait) refers to tcp.o(i.tcp_abort) for tcp_abort
    tcp.o(i.tcp_kill_timewait) refers to tcp.o(.data) for tcp_tw_pcbs
    tcp.o(i.tcp_listen_with_backlog) refers to memp.o(i.memp_malloc) for memp_malloc
    tcp.o(i.tcp_listen_with_backlog) refers to memp.o(i.memp_free) for memp_free
    tcp.o(i.tcp_listen_with_backlog) refers to timers.o(i.tcp_timer_needed) for tcp_timer_needed
    tcp.o(i.tcp_listen_with_backlog) refers to tcp.o(.data) for tcp_bound_pcbs
    tcp.o(i.tcp_listen_with_backlog) refers to tcp.o(i.tcp_accept_null) for tcp_accept_null
    tcp.o(i.tcp_new) refers to tcp.o(i.tcp_alloc) for tcp_alloc
    tcp.o(i.tcp_new_port) refers to tcp.o(.data) for tcp_port
    tcp.o(i.tcp_new_port) refers to tcp.o(.constdata) for tcp_pcb_lists
    tcp.o(i.tcp_next_iss) refers to tcp.o(.data) for iss
    tcp.o(i.tcp_pcb_purge) refers to pbuf.o(i.pbuf_free) for pbuf_free
    tcp.o(i.tcp_pcb_purge) refers to tcp.o(i.tcp_segs_free) for tcp_segs_free
    tcp.o(i.tcp_pcb_remove) refers to tcp.o(i.tcp_pcb_purge) for tcp_pcb_purge
    tcp.o(i.tcp_pcb_remove) refers to tcp_out.o(i.tcp_output) for tcp_output
    tcp.o(i.tcp_pcb_remove) refers to tcp.o(.data) for tcp_tmp_pcb
    tcp.o(i.tcp_process_refused_data) refers to tcp.o(i.tcp_recv_null) for tcp_recv_null
    tcp.o(i.tcp_recv_null) refers to tcp.o(i.tcp_recved) for tcp_recved
    tcp.o(i.tcp_recv_null) refers to pbuf.o(i.pbuf_free) for pbuf_free
    tcp.o(i.tcp_recv_null) refers to tcp.o(i.tcp_close) for tcp_close
    tcp.o(i.tcp_recved) refers to tcp.o(i.tcp_update_rcv_ann_wnd) for tcp_update_rcv_ann_wnd
    tcp.o(i.tcp_recved) refers to tcp_out.o(i.tcp_output) for tcp_output
    tcp.o(i.tcp_seg_free) refers to pbuf.o(i.pbuf_free) for pbuf_free
    tcp.o(i.tcp_seg_free) refers to memp.o(i.memp_free) for memp_free
    tcp.o(i.tcp_segs_free) refers to tcp.o(i.tcp_seg_free) for tcp_seg_free
    tcp.o(i.tcp_shutdown) refers to tcp.o(i.tcp_close_shutdown) for tcp_close_shutdown
    tcp.o(i.tcp_shutdown) refers to pbuf.o(i.pbuf_free) for pbuf_free
    tcp.o(i.tcp_slowtmr) refers to tcp_out.o(i.tcp_zero_window_probe) for tcp_zero_window_probe
    tcp.o(i.tcp_slowtmr) refers to tcp_out.o(i.tcp_rexmit_rto) for tcp_rexmit_rto
    tcp.o(i.tcp_slowtmr) refers to tcp_out.o(i.tcp_keepalive) for tcp_keepalive
    tcp.o(i.tcp_slowtmr) refers to tcp.o(i.tcp_pcb_purge) for tcp_pcb_purge
    tcp.o(i.tcp_slowtmr) refers to tcp_out.o(i.tcp_rst) for tcp_rst
    tcp.o(i.tcp_slowtmr) refers to memp.o(i.memp_free) for memp_free
    tcp.o(i.tcp_slowtmr) refers to tcp_out.o(i.tcp_output) for tcp_output
    tcp.o(i.tcp_slowtmr) refers to tcp.o(.data) for tcp_ticks
    tcp.o(i.tcp_slowtmr) refers to tcp.o(.constdata) for tcp_persist_backoff
    tcp.o(i.tcp_tmr) refers to tcp.o(i.tcp_fasttmr) for tcp_fasttmr
    tcp.o(i.tcp_tmr) refers to tcp.o(i.tcp_slowtmr) for tcp_slowtmr
    tcp.o(i.tcp_tmr) refers to tcp.o(.data) for tcp_timer
    tcp.o(.constdata) refers to tcp.o(.conststring) for .conststring
    tcp.o(.constdata) refers to tcp.o(.data) for tcp_listen_pcbs
    tcp_in.o(i.tcp_input) refers to pbuf.o(i.pbuf_header) for pbuf_header
    tcp_in.o(i.tcp_input) refers to ip_addr.o(i.ip4_addr_isbroadcast) for ip4_addr_isbroadcast
    tcp_in.o(i.tcp_input) refers to inet_chksum.o(i.inet_chksum_pseudo) for inet_chksum_pseudo
    tcp_in.o(i.tcp_input) refers to def.o(i.lwip_ntohs) for lwip_ntohs
    tcp_in.o(i.tcp_input) refers to def.o(i.lwip_ntohl) for lwip_ntohl
    tcp_in.o(i.tcp_input) refers to tcp_in.o(i.tcp_timewait_input) for tcp_timewait_input
    tcp_in.o(i.tcp_input) refers to pbuf.o(i.pbuf_free) for pbuf_free
    tcp_in.o(i.tcp_input) refers to tcp_in.o(i.tcp_listen_input) for tcp_listen_input
    tcp_in.o(i.tcp_input) refers to tcp.o(i.tcp_process_refused_data) for tcp_process_refused_data
    tcp_in.o(i.tcp_input) refers to tcp_in.o(i.tcp_process) for tcp_process
    tcp_in.o(i.tcp_input) refers to tcp.o(i.tcp_pcb_remove) for tcp_pcb_remove
    tcp_in.o(i.tcp_input) refers to memp.o(i.memp_free) for memp_free
    tcp_in.o(i.tcp_input) refers to tcp.o(i.tcp_abort) for tcp_abort
    tcp_in.o(i.tcp_input) refers to stats.o(.bss) for lwip_stats
    tcp_in.o(i.tcp_input) refers to tcp_in.o(.data) for iphdr
    tcp_in.o(i.tcp_input) refers to ip.o(.data) for current_iphdr_dest
    tcp_in.o(i.tcp_input) refers to tcp.o(.data) for tcp_active_pcbs
    tcp_in.o(i.tcp_input) refers to tcp_in.o(.bss) for inseg
    tcp_in.o(i.tcp_input) refers to tcp.o(i.tcp_recv_null) for tcp_recv_null
    tcp_in.o(i.tcp_input) refers to tcp_out.o(i.tcp_output) for tcp_output
    tcp_in.o(i.tcp_input) refers to tcp_out.o(i.tcp_rst) for tcp_rst
    tcp_in.o(i.tcp_listen_input) refers to tcp_out.o(i.tcp_rst) for tcp_rst
    tcp_in.o(i.tcp_listen_input) refers to tcp.o(i.tcp_alloc) for tcp_alloc
    tcp_in.o(i.tcp_listen_input) refers to timers.o(i.tcp_timer_needed) for tcp_timer_needed
    tcp_in.o(i.tcp_listen_input) refers to tcp_in.o(i.tcp_parseopt) for tcp_parseopt
    tcp_in.o(i.tcp_listen_input) refers to tcp.o(i.tcp_eff_send_mss) for tcp_eff_send_mss
    tcp_in.o(i.tcp_listen_input) refers to tcp_out.o(i.tcp_enqueue_flags) for tcp_enqueue_flags
    tcp_in.o(i.tcp_listen_input) refers to tcp.o(i.tcp_abandon) for tcp_abandon
    tcp_in.o(i.tcp_listen_input) refers to tcp_out.o(i.tcp_output) for tcp_output
    tcp_in.o(i.tcp_listen_input) refers to tcp_in.o(.data) for flags
    tcp_in.o(i.tcp_listen_input) refers to ip.o(.data) for current_iphdr_src
    tcp_in.o(i.tcp_listen_input) refers to stats.o(.bss) for lwip_stats
    tcp_in.o(i.tcp_listen_input) refers to tcp.o(.data) for tcp_active_pcbs
    tcp_in.o(i.tcp_parseopt) refers to def.o(i.lwip_ntohs) for lwip_ntohs
    tcp_in.o(i.tcp_parseopt) refers to tcp_in.o(.data) for tcphdr
    tcp_in.o(i.tcp_process) refers to tcp_in.o(i.tcp_parseopt) for tcp_parseopt
    tcp_in.o(i.tcp_process) refers to def.o(i.lwip_ntohl) for lwip_ntohl
    tcp_in.o(i.tcp_process) refers to tcp.o(i.tcp_eff_send_mss) for tcp_eff_send_mss
    tcp_in.o(i.tcp_process) refers to tcp.o(i.tcp_seg_free) for tcp_seg_free
    tcp_in.o(i.tcp_process) refers to tcp_out.o(i.tcp_rst) for tcp_rst
    tcp_in.o(i.tcp_process) refers to tcp.o(i.tcp_abort) for tcp_abort
    tcp_in.o(i.tcp_process) refers to tcp_in.o(i.tcp_receive) for tcp_receive
    tcp_in.o(i.tcp_process) refers to tcp_out.o(i.tcp_rexmit) for tcp_rexmit
    tcp_in.o(i.tcp_process) refers to tcp.o(i.tcp_pcb_purge) for tcp_pcb_purge
    tcp_in.o(i.tcp_process) refers to timers.o(i.tcp_timer_needed) for tcp_timer_needed
    tcp_in.o(i.tcp_process) refers to tcp_in.o(.data) for flags
    tcp_in.o(i.tcp_process) refers to tcp.o(.data) for tcp_ticks
    tcp_in.o(i.tcp_process) refers to ip.o(.data) for current_iphdr_src
    tcp_in.o(i.tcp_receive) refers to tcp_out.o(i.tcp_rexmit_fast) for tcp_rexmit_fast
    tcp_in.o(i.tcp_receive) refers to pbuf.o(i.pbuf_clen) for pbuf_clen
    tcp_in.o(i.tcp_receive) refers to def.o(i.lwip_ntohs) for lwip_ntohs
    tcp_in.o(i.tcp_receive) refers to tcp.o(i.tcp_seg_free) for tcp_seg_free
    tcp_in.o(i.tcp_receive) refers to def.o(i.lwip_ntohl) for lwip_ntohl
    tcp_in.o(i.tcp_receive) refers to tcp_in.o(.data) for flags
    tcp_in.o(i.tcp_receive) refers to tcp.o(.data) for tcp_ticks
    tcp_in.o(i.tcp_receive) refers to pbuf.o(i.pbuf_header) for pbuf_header
    tcp_in.o(i.tcp_receive) refers to def.o(i.lwip_htons) for lwip_htons
    tcp_in.o(i.tcp_receive) refers to pbuf.o(i.pbuf_realloc) for pbuf_realloc
    tcp_in.o(i.tcp_receive) refers to tcp.o(i.tcp_update_rcv_ann_wnd) for tcp_update_rcv_ann_wnd
    tcp_in.o(i.tcp_receive) refers to tcp_out.o(i.tcp_send_empty_ack) for tcp_send_empty_ack
    tcp_in.o(i.tcp_receive) refers to tcp_in.o(.bss) for inseg
    tcp_in.o(i.tcp_timewait_input) refers to tcp_out.o(i.tcp_rst) for tcp_rst
    tcp_in.o(i.tcp_timewait_input) refers to tcp_out.o(i.tcp_output) for tcp_output
    tcp_in.o(i.tcp_timewait_input) refers to tcp_in.o(.data) for flags
    tcp_in.o(i.tcp_timewait_input) refers to ip.o(.data) for current_iphdr_src
    tcp_in.o(i.tcp_timewait_input) refers to tcp.o(.data) for tcp_ticks
    tcp_out.o(i.tcp_create_segment) refers to memp.o(i.memp_malloc) for memp_malloc
    tcp_out.o(i.tcp_create_segment) refers to pbuf.o(i.pbuf_free) for pbuf_free
    tcp_out.o(i.tcp_create_segment) refers to pbuf.o(i.pbuf_header) for pbuf_header
    tcp_out.o(i.tcp_create_segment) refers to tcp.o(i.tcp_seg_free) for tcp_seg_free
    tcp_out.o(i.tcp_create_segment) refers to def.o(i.lwip_htons) for lwip_htons
    tcp_out.o(i.tcp_create_segment) refers to def.o(i.lwip_htonl) for lwip_htonl
    tcp_out.o(i.tcp_create_segment) refers to stats.o(.bss) for lwip_stats
    tcp_out.o(i.tcp_enqueue_flags) refers to pbuf.o(i.pbuf_alloc) for pbuf_alloc
    tcp_out.o(i.tcp_enqueue_flags) refers to tcp_out.o(i.tcp_create_segment) for tcp_create_segment
    tcp_out.o(i.tcp_enqueue_flags) refers to pbuf.o(i.pbuf_clen) for pbuf_clen
    tcp_out.o(i.tcp_enqueue_flags) refers to stats.o(.bss) for lwip_stats
    tcp_out.o(i.tcp_keepalive) refers to def.o(i.lwip_htonl) for lwip_htonl
    tcp_out.o(i.tcp_keepalive) refers to tcp_out.o(i.tcp_output_alloc_header) for tcp_output_alloc_header
    tcp_out.o(i.tcp_keepalive) refers to inet_chksum.o(i.inet_chksum_pseudo) for inet_chksum_pseudo
    tcp_out.o(i.tcp_keepalive) refers to ip.o(i.ip_output) for ip_output
    tcp_out.o(i.tcp_keepalive) refers to pbuf.o(i.pbuf_free) for pbuf_free
    tcp_out.o(i.tcp_keepalive) refers to stats.o(.bss) for lwip_stats
    tcp_out.o(i.tcp_output) refers to def.o(i.lwip_ntohl) for lwip_ntohl
    tcp_out.o(i.tcp_output) refers to tcp_out.o(i.tcp_send_empty_ack) for tcp_send_empty_ack
    tcp_out.o(i.tcp_output) refers to def.o(i.lwip_ntohs) for lwip_ntohs
    tcp_out.o(i.tcp_output) refers to def.o(i.lwip_htons) for lwip_htons
    tcp_out.o(i.tcp_output) refers to tcp_out.o(i.tcp_output_segment) for tcp_output_segment
    tcp_out.o(i.tcp_output) refers to tcp.o(i.tcp_seg_free) for tcp_seg_free
    tcp_out.o(i.tcp_output) refers to tcp_in.o(.data) for tcp_input_pcb
    tcp_out.o(i.tcp_output_alloc_header) refers to pbuf.o(i.pbuf_alloc) for pbuf_alloc
    tcp_out.o(i.tcp_output_alloc_header) refers to def.o(i.lwip_htons) for lwip_htons
    tcp_out.o(i.tcp_output_alloc_header) refers to def.o(i.lwip_htonl) for lwip_htonl
    tcp_out.o(i.tcp_output_segment) refers to def.o(i.lwip_htonl) for lwip_htonl
    tcp_out.o(i.tcp_output_segment) refers to def.o(i.lwip_htons) for lwip_htons
    tcp_out.o(i.tcp_output_segment) refers to tcp.o(i.tcp_eff_send_mss) for tcp_eff_send_mss
    tcp_out.o(i.tcp_output_segment) refers to ip.o(i.ip_route) for ip_route
    tcp_out.o(i.tcp_output_segment) refers to def.o(i.lwip_ntohl) for lwip_ntohl
    tcp_out.o(i.tcp_output_segment) refers to inet_chksum.o(i.inet_chksum_pseudo) for inet_chksum_pseudo
    tcp_out.o(i.tcp_output_segment) refers to ip.o(i.ip_output) for ip_output
    tcp_out.o(i.tcp_output_segment) refers to tcp.o(.data) for tcp_ticks
    tcp_out.o(i.tcp_output_segment) refers to stats.o(.bss) for lwip_stats
    tcp_out.o(i.tcp_pbuf_prealloc) refers to pbuf.o(i.pbuf_alloc) for pbuf_alloc
    tcp_out.o(i.tcp_rexmit) refers to def.o(i.lwip_ntohl) for lwip_ntohl
    tcp_out.o(i.tcp_rexmit_fast) refers to tcp_out.o(i.tcp_rexmit) for tcp_rexmit
    tcp_out.o(i.tcp_rexmit_rto) refers to tcp_out.o(i.tcp_output) for tcp_output
    tcp_out.o(i.tcp_rst) refers to pbuf.o(i.pbuf_alloc) for pbuf_alloc
    tcp_out.o(i.tcp_rst) refers to def.o(i.lwip_htons) for lwip_htons
    tcp_out.o(i.tcp_rst) refers to def.o(i.lwip_htonl) for lwip_htonl
    tcp_out.o(i.tcp_rst) refers to inet_chksum.o(i.inet_chksum_pseudo) for inet_chksum_pseudo
    tcp_out.o(i.tcp_rst) refers to ip.o(i.ip_output) for ip_output
    tcp_out.o(i.tcp_rst) refers to pbuf.o(i.pbuf_free) for pbuf_free
    tcp_out.o(i.tcp_rst) refers to stats.o(.bss) for lwip_stats
    tcp_out.o(i.tcp_send_empty_ack) refers to def.o(i.lwip_htonl) for lwip_htonl
    tcp_out.o(i.tcp_send_empty_ack) refers to tcp_out.o(i.tcp_output_alloc_header) for tcp_output_alloc_header
    tcp_out.o(i.tcp_send_empty_ack) refers to inet_chksum.o(i.inet_chksum_pseudo) for inet_chksum_pseudo
    tcp_out.o(i.tcp_send_empty_ack) refers to ip.o(i.ip_output) for ip_output
    tcp_out.o(i.tcp_send_empty_ack) refers to pbuf.o(i.pbuf_free) for pbuf_free
    tcp_out.o(i.tcp_send_fin) refers to def.o(i.lwip_ntohs) for lwip_ntohs
    tcp_out.o(i.tcp_send_fin) refers to def.o(i.lwip_htons) for lwip_htons
    tcp_out.o(i.tcp_send_fin) refers to tcp_out.o(i.tcp_enqueue_flags) for tcp_enqueue_flags
    tcp_out.o(i.tcp_write) refers to tcp_out.o(i.tcp_write_checks) for tcp_write_checks
    tcp_out.o(i.tcp_write) refers to tcp_out.o(i.tcp_pbuf_prealloc) for tcp_pbuf_prealloc
    tcp_out.o(i.tcp_write) refers to memcpya.o(.text) for __aeabi_memcpy
    tcp_out.o(i.tcp_write) refers to pbuf.o(i.pbuf_alloc) for pbuf_alloc
    tcp_out.o(i.tcp_write) refers to pbuf.o(i.pbuf_clen) for pbuf_clen
    tcp_out.o(i.tcp_write) refers to pbuf.o(i.pbuf_free) for pbuf_free
    tcp_out.o(i.tcp_write) refers to pbuf.o(i.pbuf_cat) for pbuf_cat
    tcp_out.o(i.tcp_write) refers to tcp_out.o(i.tcp_create_segment) for tcp_create_segment
    tcp_out.o(i.tcp_write) refers to def.o(i.lwip_htons) for lwip_htons
    tcp_out.o(i.tcp_write) refers to tcp.o(i.tcp_segs_free) for tcp_segs_free
    tcp_out.o(i.tcp_write) refers to stats.o(.bss) for lwip_stats
    tcp_out.o(i.tcp_write_checks) refers to stats.o(.bss) for lwip_stats
    tcp_out.o(i.tcp_zero_window_probe) refers to def.o(i.lwip_ntohs) for lwip_ntohs
    tcp_out.o(i.tcp_zero_window_probe) refers to tcp_out.o(i.tcp_output_alloc_header) for tcp_output_alloc_header
    tcp_out.o(i.tcp_zero_window_probe) refers to def.o(i.lwip_htons) for lwip_htons
    tcp_out.o(i.tcp_zero_window_probe) refers to pbuf.o(i.pbuf_copy_partial) for pbuf_copy_partial
    tcp_out.o(i.tcp_zero_window_probe) refers to inet_chksum.o(i.inet_chksum_pseudo) for inet_chksum_pseudo
    tcp_out.o(i.tcp_zero_window_probe) refers to ip.o(i.ip_output) for ip_output
    tcp_out.o(i.tcp_zero_window_probe) refers to pbuf.o(i.pbuf_free) for pbuf_free
    tcp_out.o(i.tcp_zero_window_probe) refers to stats.o(.bss) for lwip_stats
    udp.o(i.udp_bind) refers to udp.o(i.udp_new_port) for udp_new_port
    udp.o(i.udp_bind) refers to udp.o(.data) for udp_pcbs
    udp.o(i.udp_connect) refers to udp.o(i.udp_bind) for udp_bind
    udp.o(i.udp_connect) refers to udp.o(.data) for udp_pcbs
    udp.o(i.udp_input) refers to pbuf.o(i.pbuf_header) for pbuf_header
    udp.o(i.udp_input) refers to pbuf.o(i.pbuf_free) for pbuf_free
    udp.o(i.udp_input) refers to ip_addr.o(i.ip4_addr_isbroadcast) for ip4_addr_isbroadcast
    udp.o(i.udp_input) refers to def.o(i.lwip_ntohs) for lwip_ntohs
    udp.o(i.udp_input) refers to inet_chksum.o(i.inet_chksum_pseudo) for inet_chksum_pseudo
    udp.o(i.udp_input) refers to icmp.o(i.icmp_dest_unreach) for icmp_dest_unreach
    udp.o(i.udp_input) refers to stats.o(.bss) for lwip_stats
    udp.o(i.udp_input) refers to ip.o(.data) for current_iphdr_dest
    udp.o(i.udp_input) refers to udp.o(.data) for udp_pcbs
    udp.o(i.udp_new) refers to memp.o(i.memp_malloc) for memp_malloc
    udp.o(i.udp_new) refers to memseta.o(.text) for __aeabi_memclr4
    udp.o(i.udp_new_port) refers to udp.o(.data) for udp_port
    udp.o(i.udp_remove) refers to memp.o(i.memp_free) for memp_free
    udp.o(i.udp_remove) refers to udp.o(.data) for udp_pcbs
    udp.o(i.udp_send) refers to udp.o(i.udp_sendto) for udp_sendto
    udp.o(i.udp_sendto) refers to ip.o(i.ip_route) for ip_route
    udp.o(i.udp_sendto) refers to udp.o(i.udp_sendto_if) for udp_sendto_if
    udp.o(i.udp_sendto) refers to stats.o(.bss) for lwip_stats
    udp.o(i.udp_sendto_if) refers to udp.o(i.udp_bind) for udp_bind
    udp.o(i.udp_sendto_if) refers to pbuf.o(i.pbuf_header) for pbuf_header
    udp.o(i.udp_sendto_if) refers to pbuf.o(i.pbuf_alloc) for pbuf_alloc
    udp.o(i.udp_sendto_if) refers to pbuf.o(i.pbuf_chain) for pbuf_chain
    udp.o(i.udp_sendto_if) refers to def.o(i.lwip_htons) for lwip_htons
    udp.o(i.udp_sendto_if) refers to pbuf.o(i.pbuf_free) for pbuf_free
    udp.o(i.udp_sendto_if) refers to inet_chksum.o(i.inet_chksum_pseudo) for inet_chksum_pseudo
    udp.o(i.udp_sendto_if) refers to ip.o(i.ip_output_if) for ip_output_if
    udp.o(i.udp_sendto_if) refers to stats.o(.bss) for lwip_stats
    icmp.o(i.icmp_dest_unreach) refers to icmp.o(i.icmp_send_response) for icmp_send_response
    icmp.o(i.icmp_input) refers to pbuf.o(i.pbuf_header) for pbuf_header
    icmp.o(i.icmp_input) refers to ip_addr.o(i.ip4_addr_isbroadcast) for ip4_addr_isbroadcast
    icmp.o(i.icmp_input) refers to pbuf.o(i.pbuf_free) for pbuf_free
    icmp.o(i.icmp_input) refers to inet_chksum.o(i.inet_chksum_pbuf) for inet_chksum_pbuf
    icmp.o(i.icmp_input) refers to pbuf.o(i.pbuf_alloc) for pbuf_alloc
    icmp.o(i.icmp_input) refers to pbuf.o(i.pbuf_copy) for pbuf_copy
    icmp.o(i.icmp_input) refers to inet_chksum.o(i.inet_chksum) for inet_chksum
    icmp.o(i.icmp_input) refers to ip.o(i.ip_output_if) for ip_output_if
    icmp.o(i.icmp_input) refers to stats.o(.bss) for lwip_stats
    icmp.o(i.icmp_input) refers to ip.o(.data) for current_iphdr_dest
    icmp.o(i.icmp_send_response) refers to pbuf.o(i.pbuf_alloc) for pbuf_alloc
    icmp.o(i.icmp_send_response) refers to memcpya.o(.text) for __aeabi_memcpy
    icmp.o(i.icmp_send_response) refers to inet_chksum.o(i.inet_chksum) for inet_chksum
    icmp.o(i.icmp_send_response) refers to ip.o(i.ip_output) for ip_output
    icmp.o(i.icmp_send_response) refers to pbuf.o(i.pbuf_free) for pbuf_free
    icmp.o(i.icmp_send_response) refers to stats.o(.bss) for lwip_stats
    icmp.o(i.icmp_time_exceeded) refers to icmp.o(i.icmp_send_response) for icmp_send_response
    inet_chksum.o(i.inet_chksum) refers to inet_chksum.o(i.lwip_standard_chksum) for lwip_standard_chksum
    inet_chksum.o(i.inet_chksum_pbuf) refers to inet_chksum.o(i.lwip_standard_chksum) for lwip_standard_chksum
    inet_chksum.o(i.inet_chksum_pseudo) refers to inet_chksum.o(i.lwip_standard_chksum) for lwip_standard_chksum
    inet_chksum.o(i.inet_chksum_pseudo) refers to def.o(i.lwip_htons) for lwip_htons
    inet_chksum.o(i.inet_chksum_pseudo_partial) refers to inet_chksum.o(i.lwip_standard_chksum) for lwip_standard_chksum
    inet_chksum.o(i.inet_chksum_pseudo_partial) refers to def.o(i.lwip_htons) for lwip_htons
    ip.o(i.ip_input) refers to pbuf.o(i.pbuf_free) for pbuf_free
    ip.o(i.ip_input) refers to def.o(i.lwip_ntohs) for lwip_ntohs
    ip.o(i.ip_input) refers to inet_chksum.o(i.inet_chksum) for inet_chksum
    ip.o(i.ip_input) refers to pbuf.o(i.pbuf_realloc) for pbuf_realloc
    ip.o(i.ip_input) refers to ip_addr.o(i.ip4_addr_isbroadcast) for ip4_addr_isbroadcast
    ip.o(i.ip_input) refers to ip_frag.o(i.ip_reass) for ip_reass
    ip.o(i.ip_input) refers to raw.o(i.raw_input) for raw_input
    ip.o(i.ip_input) refers to udp.o(i.udp_input) for udp_input
    ip.o(i.ip_input) refers to tcp_in.o(i.tcp_input) for tcp_input
    ip.o(i.ip_input) refers to icmp.o(i.icmp_input) for icmp_input
    ip.o(i.ip_input) refers to icmp.o(i.icmp_dest_unreach) for icmp_dest_unreach
    ip.o(i.ip_input) refers to stats.o(.bss) for lwip_stats
    ip.o(i.ip_input) refers to ip.o(.data) for current_iphdr_dest
    ip.o(i.ip_input) refers to netif.o(.data) for netif_list
    ip.o(i.ip_output) refers to ip.o(i.ip_route) for ip_route
    ip.o(i.ip_output) refers to ip.o(i.ip_output_if) for ip_output_if
    ip.o(i.ip_output) refers to stats.o(.bss) for lwip_stats
    ip.o(i.ip_output_if) refers to pbuf.o(i.pbuf_header) for pbuf_header
    ip.o(i.ip_output_if) refers to def.o(i.lwip_htons) for lwip_htons
    ip.o(i.ip_output_if) refers to ip_frag.o(i.ip_frag) for ip_frag
    ip.o(i.ip_output_if) refers to stats.o(.bss) for lwip_stats
    ip.o(i.ip_output_if) refers to ip.o(.data) for ip_id
    ip.o(i.ip_route) refers to netif.o(.data) for netif_list
    ip.o(i.ip_route) refers to stats.o(.bss) for lwip_stats
    ip_addr.o(i.ip4_addr_netmask_valid) refers to def.o(i.lwip_htonl) for lwip_htonl
    ip_addr.o(i.ipaddr_addr) refers to ip_addr.o(i.ipaddr_aton) for ipaddr_aton
    ip_addr.o(i.ipaddr_aton) refers to def.o(i.lwip_htonl) for lwip_htonl
    ip_addr.o(i.ipaddr_ntoa) refers to ip_addr.o(i.ipaddr_ntoa_r) for ipaddr_ntoa_r
    ip_addr.o(i.ipaddr_ntoa) refers to ip_addr.o(.bss) for str
    ip_frag.o(i.ip_frag) refers to def.o(i.lwip_ntohs) for lwip_ntohs
    ip_frag.o(i.ip_frag) refers to pbuf.o(i.pbuf_alloc) for pbuf_alloc
    ip_frag.o(i.ip_frag) refers to memcpya.o(.text) for __aeabi_memcpy
    ip_frag.o(i.ip_frag) refers to ip_frag.o(i.ip_frag_alloc_pbuf_custom_ref) for ip_frag_alloc_pbuf_custom_ref
    ip_frag.o(i.ip_frag) refers to pbuf.o(i.pbuf_free) for pbuf_free
    ip_frag.o(i.ip_frag) refers to pbuf.o(i.pbuf_alloced_custom) for pbuf_alloced_custom
    ip_frag.o(i.ip_frag) refers to ip_frag.o(i.ip_frag_free_pbuf_custom_ref) for ip_frag_free_pbuf_custom_ref
    ip_frag.o(i.ip_frag) refers to pbuf.o(i.pbuf_ref) for pbuf_ref
    ip_frag.o(i.ip_frag) refers to pbuf.o(i.pbuf_cat) for pbuf_cat
    ip_frag.o(i.ip_frag) refers to def.o(i.lwip_htons) for lwip_htons
    ip_frag.o(i.ip_frag) refers to inet_chksum.o(i.inet_chksum) for inet_chksum
    ip_frag.o(i.ip_frag) refers to ip_frag.o(i.ipfrag_free_pbuf_custom) for ipfrag_free_pbuf_custom
    ip_frag.o(i.ip_frag) refers to stats.o(.bss) for lwip_stats
    ip_frag.o(i.ip_frag_alloc_pbuf_custom_ref) refers to memp.o(i.memp_malloc) for memp_malloc
    ip_frag.o(i.ip_frag_free_pbuf_custom_ref) refers to memp.o(i.memp_free) for memp_free
    ip_frag.o(i.ip_reass) refers to def.o(i.lwip_ntohs) for lwip_ntohs
    ip_frag.o(i.ip_reass) refers to pbuf.o(i.pbuf_clen) for pbuf_clen
    ip_frag.o(i.ip_reass) refers to ip_frag.o(i.ip_reass_remove_oldest_datagram) for ip_reass_remove_oldest_datagram
    ip_frag.o(i.ip_reass) refers to ip_frag.o(i.ip_reass_enqueue_new_datagram) for ip_reass_enqueue_new_datagram
    ip_frag.o(i.ip_reass) refers to memcpya.o(.text) for __aeabi_memcpy
    ip_frag.o(i.ip_reass) refers to ip_frag.o(i.ip_reass_chain_frag_into_datagram_and_validate) for ip_reass_chain_frag_into_datagram_and_validate
    ip_frag.o(i.ip_reass) refers to def.o(i.lwip_htons) for lwip_htons
    ip_frag.o(i.ip_reass) refers to inet_chksum.o(i.inet_chksum) for inet_chksum
    ip_frag.o(i.ip_reass) refers to pbuf.o(i.pbuf_header) for pbuf_header
    ip_frag.o(i.ip_reass) refers to pbuf.o(i.pbuf_cat) for pbuf_cat
    ip_frag.o(i.ip_reass) refers to ip_frag.o(i.ip_reass_dequeue_datagram) for ip_reass_dequeue_datagram
    ip_frag.o(i.ip_reass) refers to pbuf.o(i.pbuf_free) for pbuf_free
    ip_frag.o(i.ip_reass) refers to stats.o(.bss) for lwip_stats
    ip_frag.o(i.ip_reass) refers to ip_frag.o(.data) for ip_reass_pbufcount
    ip_frag.o(i.ip_reass_chain_frag_into_datagram_and_validate) refers to def.o(i.lwip_ntohs) for lwip_ntohs
    ip_frag.o(i.ip_reass_chain_frag_into_datagram_and_validate) refers to pbuf.o(i.pbuf_clen) for pbuf_clen
    ip_frag.o(i.ip_reass_chain_frag_into_datagram_and_validate) refers to pbuf.o(i.pbuf_free) for pbuf_free
    ip_frag.o(i.ip_reass_chain_frag_into_datagram_and_validate) refers to ip_frag.o(.data) for ip_reass_pbufcount
    ip_frag.o(i.ip_reass_dequeue_datagram) refers to memp.o(i.memp_free) for memp_free
    ip_frag.o(i.ip_reass_dequeue_datagram) refers to ip_frag.o(.data) for reassdatagrams
    ip_frag.o(i.ip_reass_enqueue_new_datagram) refers to memp.o(i.memp_malloc) for memp_malloc
    ip_frag.o(i.ip_reass_enqueue_new_datagram) refers to ip_frag.o(i.ip_reass_remove_oldest_datagram) for ip_reass_remove_oldest_datagram
    ip_frag.o(i.ip_reass_enqueue_new_datagram) refers to memseta.o(.text) for __aeabi_memclr4
    ip_frag.o(i.ip_reass_enqueue_new_datagram) refers to memcpya.o(.text) for __aeabi_memcpy
    ip_frag.o(i.ip_reass_enqueue_new_datagram) refers to stats.o(.bss) for lwip_stats
    ip_frag.o(i.ip_reass_enqueue_new_datagram) refers to ip_frag.o(.data) for reassdatagrams
    ip_frag.o(i.ip_reass_free_complete_datagram) refers to memcpya.o(.text) for __aeabi_memcpy
    ip_frag.o(i.ip_reass_free_complete_datagram) refers to icmp.o(i.icmp_time_exceeded) for icmp_time_exceeded
    ip_frag.o(i.ip_reass_free_complete_datagram) refers to pbuf.o(i.pbuf_clen) for pbuf_clen
    ip_frag.o(i.ip_reass_free_complete_datagram) refers to pbuf.o(i.pbuf_free) for pbuf_free
    ip_frag.o(i.ip_reass_free_complete_datagram) refers to ip_frag.o(i.ip_reass_dequeue_datagram) for ip_reass_dequeue_datagram
    ip_frag.o(i.ip_reass_free_complete_datagram) refers to ip_frag.o(.data) for ip_reass_pbufcount
    ip_frag.o(i.ip_reass_remove_oldest_datagram) refers to ip_frag.o(i.ip_reass_free_complete_datagram) for ip_reass_free_complete_datagram
    ip_frag.o(i.ip_reass_remove_oldest_datagram) refers to ip_frag.o(.data) for reassdatagrams
    ip_frag.o(i.ip_reass_tmr) refers to ip_frag.o(i.ip_reass_free_complete_datagram) for ip_reass_free_complete_datagram
    ip_frag.o(i.ip_reass_tmr) refers to ip_frag.o(.data) for reassdatagrams
    ip_frag.o(i.ipfrag_free_pbuf_custom) refers to pbuf.o(i.pbuf_free) for pbuf_free
    ip_frag.o(i.ipfrag_free_pbuf_custom) refers to ip_frag.o(i.ip_frag_free_pbuf_custom_ref) for ip_frag_free_pbuf_custom_ref
    etharp.o(i.etharp_arp_input) refers to pbuf.o(i.pbuf_free) for pbuf_free
    etharp.o(i.etharp_arp_input) refers to etharp.o(i.etharp_update_arp_entry) for etharp_update_arp_entry
    etharp.o(i.etharp_arp_input) refers to def.o(i.lwip_htons) for lwip_htons
    etharp.o(i.etharp_arp_input) refers to stats.o(.bss) for lwip_stats
    etharp.o(i.etharp_cleanup_netif) refers to etharp.o(i.etharp_free_entry) for etharp_free_entry
    etharp.o(i.etharp_cleanup_netif) refers to etharp.o(.bss) for arp_table
    etharp.o(i.etharp_find_addr) refers to etharp.o(i.etharp_find_entry) for etharp_find_entry
    etharp.o(i.etharp_find_addr) refers to etharp.o(.bss) for arp_table
    etharp.o(i.etharp_find_entry) refers to etharp.o(i.etharp_free_entry) for etharp_free_entry
    etharp.o(i.etharp_find_entry) refers to etharp.o(.bss) for arp_table
    etharp.o(i.etharp_free_entry) refers to pbuf.o(i.pbuf_free) for pbuf_free
    etharp.o(i.etharp_free_entry) refers to etharp.o(.bss) for arp_table
    etharp.o(i.etharp_output) refers to pbuf.o(i.pbuf_header) for pbuf_header
    etharp.o(i.etharp_output) refers to ip_addr.o(i.ip4_addr_isbroadcast) for ip4_addr_isbroadcast
    etharp.o(i.etharp_output) refers to etharp.o(i.etharp_output_to_arp_index) for etharp_output_to_arp_index
    etharp.o(i.etharp_output) refers to etharp.o(i.etharp_query) for etharp_query
    etharp.o(i.etharp_output) refers to etharp.o(i.etharp_send_ip) for etharp_send_ip
    etharp.o(i.etharp_output) refers to stats.o(.bss) for lwip_stats
    etharp.o(i.etharp_output) refers to etharp.o(.constdata) for ethbroadcast
    etharp.o(i.etharp_output) refers to etharp.o(.data) for etharp_cached_entry
    etharp.o(i.etharp_output) refers to etharp.o(.bss) for arp_table
    etharp.o(i.etharp_output_to_arp_index) refers to etharp.o(i.etharp_request) for etharp_request
    etharp.o(i.etharp_output_to_arp_index) refers to etharp.o(i.etharp_send_ip) for etharp_send_ip
    etharp.o(i.etharp_output_to_arp_index) refers to etharp.o(.bss) for arp_table
    etharp.o(i.etharp_query) refers to ip_addr.o(i.ip4_addr_isbroadcast) for ip4_addr_isbroadcast
    etharp.o(i.etharp_query) refers to etharp.o(i.etharp_find_entry) for etharp_find_entry
    etharp.o(i.etharp_query) refers to etharp.o(i.etharp_request) for etharp_request
    etharp.o(i.etharp_query) refers to etharp.o(i.etharp_send_ip) for etharp_send_ip
    etharp.o(i.etharp_query) refers to pbuf.o(i.pbuf_alloc) for pbuf_alloc
    etharp.o(i.etharp_query) refers to pbuf.o(i.pbuf_copy) for pbuf_copy
    etharp.o(i.etharp_query) refers to pbuf.o(i.pbuf_free) for pbuf_free
    etharp.o(i.etharp_query) refers to pbuf.o(i.pbuf_ref) for pbuf_ref
    etharp.o(i.etharp_query) refers to stats.o(.bss) for lwip_stats
    etharp.o(i.etharp_query) refers to etharp.o(.bss) for arp_table
    etharp.o(i.etharp_query) refers to etharp.o(.data) for etharp_cached_entry
    etharp.o(i.etharp_raw) refers to pbuf.o(i.pbuf_alloc) for pbuf_alloc
    etharp.o(i.etharp_raw) refers to def.o(i.lwip_htons) for lwip_htons
    etharp.o(i.etharp_raw) refers to pbuf.o(i.pbuf_free) for pbuf_free
    etharp.o(i.etharp_raw) refers to stats.o(.bss) for lwip_stats
    etharp.o(i.etharp_request) refers to etharp.o(i.etharp_raw) for etharp_raw
    etharp.o(i.etharp_request) refers to etharp.o(.constdata) for ethzero
    etharp.o(i.etharp_tmr) refers to etharp.o(i.etharp_free_entry) for etharp_free_entry
    etharp.o(i.etharp_tmr) refers to etharp.o(.bss) for arp_table
    etharp.o(i.etharp_update_arp_entry) refers to ip_addr.o(i.ip4_addr_isbroadcast) for ip4_addr_isbroadcast
    etharp.o(i.etharp_update_arp_entry) refers to etharp.o(i.etharp_find_entry) for etharp_find_entry
    etharp.o(i.etharp_update_arp_entry) refers to etharp.o(i.etharp_send_ip) for etharp_send_ip
    etharp.o(i.etharp_update_arp_entry) refers to pbuf.o(i.pbuf_free) for pbuf_free
    etharp.o(i.etharp_update_arp_entry) refers to etharp.o(.bss) for arp_table
    etharp.o(i.ethernet_input) refers to memcmp.o(.text) for memcmp
    etharp.o(i.ethernet_input) refers to pbuf.o(i.pbuf_header) for pbuf_header
    etharp.o(i.ethernet_input) refers to ip.o(i.ip_input) for ip_input
    etharp.o(i.ethernet_input) refers to etharp.o(i.etharp_arp_input) for etharp_arp_input
    etharp.o(i.ethernet_input) refers to pbuf.o(i.pbuf_free) for pbuf_free
    etharp.o(i.ethernet_input) refers to stats.o(.bss) for lwip_stats
    etharp.o(i.ethernet_input) refers to etharp.o(.constdata) for ethbroadcast
    ethernetif.o(i.ETH_GetCurrentTxBuffer) refers to stm32_eth.o(.data) for DMATxDescToSet
    ethernetif.o(i.ETH_Recive_Poll) refers to netconf.o(i.LwIP_Pkt_Handle) for LwIP_Pkt_Handle
    ethernetif.o(i.ETH_Recive_Poll) refers to ethernetif.o(.bss) for frameds
    ethernetif.o(i.ETH_RxPkt_ChainMode) refers to stm32_eth.o(.data) for DMARxDescToGet
    ethernetif.o(i.ETH_TxPkt_ChainMode) refers to stm32f107.o(i.Ethernet_Configuration) for Ethernet_Configuration
    ethernetif.o(i.ETH_TxPkt_ChainMode) refers to ethernetif.o(i.Set_MAC_Address) for Set_MAC_Address
    ethernetif.o(i.ETH_TxPkt_ChainMode) refers to stm32_eth.o(i.ETH_DMATxDescChainInit) for ETH_DMATxDescChainInit
    ethernetif.o(i.ETH_TxPkt_ChainMode) refers to stm32_eth.o(i.ETH_DMARxDescChainInit) for ETH_DMARxDescChainInit
    ethernetif.o(i.ETH_TxPkt_ChainMode) refers to stm32_eth.o(i.ETH_DMARxDescReceiveITConfig) for ETH_DMARxDescReceiveITConfig
    ethernetif.o(i.ETH_TxPkt_ChainMode) refers to stm32_eth.o(i.ETH_Start) for ETH_Start
    ethernetif.o(i.ETH_TxPkt_ChainMode) refers to stm32_eth.o(.data) for DMATxDescToSet
    ethernetif.o(i.ETH_TxPkt_ChainMode) refers to netconf.o(.data) for macaddress
    ethernetif.o(i.ETH_TxPkt_ChainMode) refers to ethernetif.o(.bss) for Tx_Buff
    ethernetif.o(i.Read_Eth_Packet) refers to ethernetif.o(i.ETH_RxPkt_ChainMode) for ETH_RxPkt_ChainMode
    ethernetif.o(i.Read_Eth_Packet) refers to memcpya.o(.text) for __aeabi_memcpy
    ethernetif.o(i.Read_Eth_Packet) refers to ethernetif.o(.bss) for frameds
    ethernetif.o(i.Set_MAC_Address) refers to stm32_eth.o(i.ETH_MACAddressConfig) for ETH_MACAddressConfig
    ethernetif.o(i.Set_MAC_Address) refers to ethernetif.o(.data) for MACaddr
    ethernetif.o(i.ethernetif_init) refers to mem.o(i.mem_malloc) for mem_malloc
    ethernetif.o(i.ethernetif_init) refers to ethernetif.o(i.low_level_init) for low_level_init
    ethernetif.o(i.ethernetif_init) refers to etharp.o(i.etharp_output) for etharp_output
    ethernetif.o(i.ethernetif_init) refers to ethernetif.o(i.low_level_output) for low_level_output
    ethernetif.o(i.ethernetif_input) refers to ethernetif.o(i.low_level_input) for low_level_input
    ethernetif.o(i.ethernetif_input) refers to pbuf.o(i.pbuf_free) for pbuf_free
    ethernetif.o(i.low_level_init) refers to stm32_eth.o(i.ETH_DMATxDescChainInit) for ETH_DMATxDescChainInit
    ethernetif.o(i.low_level_init) refers to stm32_eth.o(i.ETH_DMARxDescChainInit) for ETH_DMARxDescChainInit
    ethernetif.o(i.low_level_init) refers to stm32_eth.o(i.ETH_DMARxDescReceiveITConfig) for ETH_DMARxDescReceiveITConfig
    ethernetif.o(i.low_level_init) refers to stm32_eth.o(i.ETH_Start) for ETH_Start
    ethernetif.o(i.low_level_init) refers to ethernetif.o(.data) for MACaddr
    ethernetif.o(i.low_level_init) refers to ethernetif.o(.bss) for Tx_Buff
    ethernetif.o(i.low_level_input) refers to pbuf.o(i.pbuf_alloc) for pbuf_alloc
    ethernetif.o(i.low_level_input) refers to memcpya.o(.text) for __aeabi_memcpy
    ethernetif.o(i.low_level_input) refers to ethernetif.o(.bss) for frameds
    ethernetif.o(i.low_level_output) refers to ethernetif.o(i.ETH_GetCurrentTxBuffer) for ETH_GetCurrentTxBuffer
    ethernetif.o(i.low_level_output) refers to memcpya.o(.text) for __aeabi_memcpy
    ethernetif.o(i.low_level_output) refers to ethernetif.o(i.ETH_TxPkt_ChainMode) for ETH_TxPkt_ChainMode
    ethernetif.o(.data) refers to ethernetif.o(.bss) for DMATxDscrTab
    system_stm32f10x.o(i.SetSysClock) refers to system_stm32f10x.o(i.SetSysClockTo72) for SetSysClockTo72
    system_stm32f10x.o(i.SystemInit) refers to system_stm32f10x.o(i.SetSysClock) for SetSysClock
    startup_stm32f10x_cl.o(RESET) refers to startup_stm32f10x_cl.o(STACK) for __initial_sp
    startup_stm32f10x_cl.o(RESET) refers to startup_stm32f10x_cl.o(.text) for Reset_Handler
    startup_stm32f10x_cl.o(RESET) refers to stm32f10x_it.o(i.NMI_Handler) for NMI_Handler
    startup_stm32f10x_cl.o(RESET) refers to stm32f10x_it.o(i.HardFault_Handler) for HardFault_Handler
    startup_stm32f10x_cl.o(RESET) refers to stm32f10x_it.o(i.MemManage_Handler) for MemManage_Handler
    startup_stm32f10x_cl.o(RESET) refers to stm32f10x_it.o(i.BusFault_Handler) for BusFault_Handler
    startup_stm32f10x_cl.o(RESET) refers to stm32f10x_it.o(i.UsageFault_Handler) for UsageFault_Handler
    startup_stm32f10x_cl.o(RESET) refers to stm32f10x_it.o(i.SVC_Handler) for SVC_Handler
    startup_stm32f10x_cl.o(RESET) refers to stm32f10x_it.o(i.DebugMon_Handler) for DebugMon_Handler
    startup_stm32f10x_cl.o(RESET) refers to stm32f10x_it.o(i.PendSV_Handler) for PendSV_Handler
    startup_stm32f10x_cl.o(RESET) refers to stm32f10x_it.o(i.SysTick_Handler) for SysTick_Handler
    startup_stm32f10x_cl.o(RESET) refers to main.o(i.TIM2_IRQHandler) for TIM2_IRQHandler
    startup_stm32f10x_cl.o(RESET) refers to stm32f10x_it.o(i.ETH_IRQHandler) for ETH_IRQHandler
    startup_stm32f10x_cl.o(.text) refers to entry.o(.ARM.Collect$$$$00000000) for __main
    dir.o(i.dir_addCluster) refers to fs.o(i.fs_initClusterChain) for fs_initClusterChain
    dir.o(i.dir_addCluster) refers to fat.o(i.fat_allocClusterChain) for fat_allocClusterChain
    dir.o(i.dir_addCluster) refers to fs.o(i.fs_getLastCluster) for fs_getLastCluster
    dir.o(i.dir_addCluster) refers to fat.o(i.fat_DiscToLogicCluster) for fat_DiscToLogicCluster
    dir.o(i.dir_addCluster) refers to fs.o(i.fs_clearCluster) for fs_clearCluster
    dir.o(i.dir_addCluster) refers to fat.o(i.fat_LogicToDiscCluster) for fat_LogicToDiscCluster
    dir.o(i.dir_createDefaultEntry) refers to plibc.o(i.memCpy) for memCpy
    dir.o(i.dir_createDirectoryEntry) refers to partition.o(i.part_getSect) for part_getSect
    dir.o(i.dir_createDirectoryEntry) refers to plibc.o(i.memCpy) for memCpy
    dir.o(i.dir_createDirectoryEntry) refers to partition.o(i.part_relSect) for part_relSect
    dir.o(i.dir_findFileinBuf) refers to memcpya.o(.text) for __aeabi_memcpy4
    dir.o(i.dir_findFileinBuf) refers to plibc.o(i.strMatch) for strMatch
    dir.o(i.dir_findFreeEntryinBuf) refers to memcpya.o(.text) for __aeabi_memcpy4
    dir.o(i.dir_findinBuf) refers to dir.o(i.dir_findFileinBuf) for dir_findFileinBuf
    dir.o(i.dir_findinBuf) refers to dir.o(i.dir_findFreeEntryinBuf) for dir_findFreeEntryinBuf
    dir.o(i.dir_findinCluster) refers to fs.o(i.fs_clusterToSector) for fs_clusterToSector
    dir.o(i.dir_findinCluster) refers to partition.o(i.part_getSect) for part_getSect
    dir.o(i.dir_findinCluster) refers to dir.o(i.dir_findinBuf) for dir_findinBuf
    dir.o(i.dir_findinCluster) refers to partition.o(i.part_relSect) for part_relSect
    dir.o(i.dir_findinDir) refers to dir.o(i.dir_findinRootArea) for dir_findinRootArea
    dir.o(i.dir_findinDir) refers to dir.o(i.dir_findinCluster) for dir_findinCluster
    dir.o(i.dir_findinDir) refers to fat.o(i.fat_LogicToDiscCluster) for fat_LogicToDiscCluster
    dir.o(i.dir_findinRootArea) refers to partition.o(i.part_getSect) for part_getSect
    dir.o(i.dir_findinRootArea) refers to dir.o(i.dir_findinBuf) for dir_findinBuf
    dir.o(i.dir_findinRootArea) refers to partition.o(i.part_relSect) for part_relSect
    dir.o(i.dir_getFatFileName) refers to plibc.o(i.memClr) for memClr
    dir.o(i.dir_getFatFileName) refers to plibc.o(i.memCpy) for memCpy
    dir.o(i.dir_getFatFileName) refers to file.o(i.file_normalToFatName) for file_normalToFatName
    dir.o(i.dir_getFileStructure) refers to partition.o(i.part_getSect) for part_getSect
    dir.o(i.dir_getFileStructure) refers to memcpya.o(.text) for __aeabi_memcpy4
    dir.o(i.dir_getFileStructure) refers to partition.o(i.part_relSect) for part_relSect
    dir.o(i.dir_setFileSize) refers to partition.o(i.part_getSect) for part_getSect
    dir.o(i.dir_setFileSize) refers to partition.o(i.part_relSect) for part_relSect
    dir.o(i.dir_setFirstCluster) refers to partition.o(i.part_getSect) for part_getSect
    dir.o(i.dir_setFirstCluster) refers to partition.o(i.part_relSect) for part_relSect
    dir.o(i.dir_updateDirectoryEntry) refers to partition.o(i.part_getSect) for part_getSect
    dir.o(i.dir_updateDirectoryEntry) refers to plibc.o(i.memCpy) for memCpy
    dir.o(i.dir_updateDirectoryEntry) refers to partition.o(i.part_relSect) for part_relSect
    disc.o(i.disc_initDisc) refers to disc.o(i.disc_loadMBR) for disc_loadMBR
    disc.o(i.disc_loadMBR) refers to ioman.o(i.ioman_getSector) for ioman_getSector
    disc.o(i.disc_loadMBR) refers to extract.o(i.ex_getPartitionField) for ex_getPartitionField
    disc.o(i.disc_loadMBR) refers to ioman.o(i.ioman_releaseSector) for ioman_releaseSector
    efs.o(i.efs_init) refers to sd_stm32.o(i.if_initInterface) for if_initInterface
    efs.o(i.efs_init) refers to ioman.o(i.ioman_init) for ioman_init
    efs.o(i.efs_init) refers to disc.o(i.disc_initDisc) for disc_initDisc
    efs.o(i.efs_init) refers to partition.o(i.part_initPartition) for part_initPartition
    efs.o(i.efs_init) refers to fs.o(i.fs_initFs) for fs_initFs
    extract.o(i.ex_getPartitionField) refers to extract.o(i.ex_getb32) for ex_getb32
    fat.o(i.fat_DiscToLogicCluster) refers to fat.o(i.fat_LogicToDiscCluster) for fat_LogicToDiscCluster
    fat.o(i.fat_LogicToDiscCluster) refers to fat.o(i.fat_getNextClusterChain) for fat_getNextClusterChain
    fat.o(i.fat_allocClusterChain) refers to fs.o(i.fs_getLastCluster) for fs_getLastCluster
    fat.o(i.fat_allocClusterChain) refers to fat.o(i.fat_getSectorAddressFatEntry) for fat_getSectorAddressFatEntry
    fat.o(i.fat_allocClusterChain) refers to partition.o(i.part_getSect) for part_getSect
    fat.o(i.fat_allocClusterChain) refers to fat.o(i.fat_giveEocMarker) for fat_giveEocMarker
    fat.o(i.fat_allocClusterChain) refers to fat.o(i.fat_setNextClusterAddressWBuf) for fat_setNextClusterAddressWBuf
    fat.o(i.fat_allocClusterChain) refers to partition.o(i.part_relSect) for part_relSect
    fat.o(i.fat_allocClusterChain) refers to fat.o(i.fat_getNextClusterAddressWBuf) for fat_getNextClusterAddressWBuf
    fat.o(i.fat_countClustersInChain) refers to fat.o(i.fat_LogicToDiscCluster) for fat_LogicToDiscCluster
    fat.o(i.fat_countFreeClusters) refers to fat.o(i.fat_getNextClusterAddress) for fat_getNextClusterAddress
    fat.o(i.fat_getNextClusterAddress) refers to fat.o(i.fat_getSectorAddressFatEntry) for fat_getSectorAddressFatEntry
    fat.o(i.fat_getNextClusterAddress) refers to partition.o(i.part_getSect) for part_getSect
    fat.o(i.fat_getNextClusterAddress) refers to partition.o(i.part_relSect) for part_relSect
    fat.o(i.fat_getNextClusterAddressWBuf) refers to fat.o(i.fat_getSectorAddressFatEntry) for fat_getSectorAddressFatEntry
    fat.o(i.fat_getNextClusterAddressWBuf) refers to partition.o(i.part_getSect) for part_getSect
    fat.o(i.fat_getNextClusterAddressWBuf) refers to partition.o(i.part_relSect) for part_relSect
    fat.o(i.fat_getNextClusterChain) refers to fat.o(i.fat_getSectorAddressFatEntry) for fat_getSectorAddressFatEntry
    fat.o(i.fat_getNextClusterChain) refers to partition.o(i.part_getSect) for part_getSect
    fat.o(i.fat_getNextClusterChain) refers to fat.o(i.fat_getNextClusterAddressWBuf) for fat_getNextClusterAddressWBuf
    fat.o(i.fat_getNextClusterChain) refers to fat.o(i.fat_isEocMarker) for fat_isEocMarker
    fat.o(i.fat_getNextClusterChain) refers to partition.o(i.part_relSect) for part_relSect
    fat.o(i.fat_setNextClusterAddress) refers to fat.o(i.fat_getSectorAddressFatEntry) for fat_getSectorAddressFatEntry
    fat.o(i.fat_setNextClusterAddress) refers to partition.o(i.part_getSect) for part_getSect
    fat.o(i.fat_setNextClusterAddress) refers to partition.o(i.part_relSect) for part_relSect
    fat.o(i.fat_setNextClusterAddressWBuf) refers to fat.o(i.fat_getSectorAddressFatEntry) for fat_getSectorAddressFatEntry
    fat.o(i.fat_setNextClusterAddressWBuf) refers to partition.o(i.part_getSect) for part_getSect
    fat.o(i.fat_setNextClusterAddressWBuf) refers to partition.o(i.part_relSect) for part_relSect
    fat.o(i.fat_unlinkClusterChain) refers to fat.o(i.fat_setNextClusterAddress) for fat_setNextClusterAddress
    fat.o(i.fat_unlinkClusterChain) refers to fat.o(i.fat_LogicToDiscCluster) for fat_LogicToDiscCluster
    file.o(i.file_fclose) refers to time.o(i.fs_hasTimeSupport) for fs_hasTimeSupport
    file.o(i.file_fclose) refers to file.o(i.file_getAttr) for file_getAttr
    file.o(i.file_fclose) refers to dir.o(i.dir_updateDirectoryEntry) for dir_updateDirectoryEntry
    file.o(i.file_fclose) refers to dir.o(i.dir_setFileSize) for dir_setFileSize
    file.o(i.file_fclose) refers to plibc.o(i.memClr) for memClr
    file.o(i.file_fclose) refers to file.o(i.file_setAttr) for file_setAttr
    file.o(i.file_fopen) refers to dir.o(i.dir_getFatFileName) for dir_getFatFileName
    file.o(i.file_fopen) refers to fs.o(i.fs_findFile) for fs_findFile
    file.o(i.file_fopen) refers to dir.o(i.dir_getFileStructure) for dir_getFileStructure
    file.o(i.file_fopen) refers to file.o(i.file_initFile) for file_initFile
    file.o(i.file_fopen) refers to file.o(i.file_setAttr) for file_setAttr
    file.o(i.file_fopen) refers to fs.o(i.fs_findFreeFile) for fs_findFreeFile
    file.o(i.file_fopen) refers to dir.o(i.dir_createDefaultEntry) for dir_createDefaultEntry
    file.o(i.file_fopen) refers to dir.o(i.dir_createDirectoryEntry) for dir_createDirectoryEntry
    file.o(i.file_fopen) refers to plibc.o(i.memCpy) for memCpy
    file.o(i.file_fopen) refers to fs.o(i.fs_giveFreeClusterHint) for fs_giveFreeClusterHint
    file.o(i.file_fopen) refers to fs.o(i.fs_getNextFreeCluster) for fs_getNextFreeCluster
    file.o(i.file_fopen) refers to dir.o(i.dir_setFirstCluster) for dir_setFirstCluster
    file.o(i.file_fopen) refers to fs.o(i.fs_setFirstClusterInDirEntry) for fs_setFirstClusterInDirEntry
    file.o(i.file_fopen) refers to fs.o(i.fs_initClusterChain) for fs_initClusterChain
    file.o(i.file_fopen) refers to fat.o(i.fat_giveEocMarker) for fat_giveEocMarker
    file.o(i.file_fopen) refers to fat.o(i.fat_setNextClusterAddress) for fat_setNextClusterAddress
    file.o(i.file_fopen) refers to file.o(i.file_setpos) for file_setpos
    file.o(i.file_fread) refers to file.o(i.file_getAttr) for file_getAttr
    file.o(i.file_fread) refers to fat.o(i.fat_LogicToDiscCluster) for fat_LogicToDiscCluster
    file.o(i.file_fread) refers to fs.o(i.fs_clusterToSector) for fs_clusterToSector
    file.o(i.file_fread) refers to partition.o(i.part_directSectorRead) for part_directSectorRead
    file.o(i.file_fread) refers to partition.o(i.part_getSect) for part_getSect
    file.o(i.file_fread) refers to plibc.o(i.memCpy) for memCpy
    file.o(i.file_fread) refers to partition.o(i.part_relSect) for part_relSect
    file.o(i.file_fwrite) refers to file.o(i.file_getAttr) for file_getAttr
    file.o(i.file_fwrite) refers to file.o(i.file_requiredCluster) for file_requiredCluster
    file.o(i.file_fwrite) refers to fat.o(i.fat_allocClusterChain) for fat_allocClusterChain
    file.o(i.file_fwrite) refers to fat.o(i.fat_LogicToDiscCluster) for fat_LogicToDiscCluster
    file.o(i.file_fwrite) refers to dir.o(i.dir_setFileSize) for dir_setFileSize
    file.o(i.file_fwrite) refers to fs.o(i.fs_clusterToSector) for fs_clusterToSector
    file.o(i.file_fwrite) refers to partition.o(i.part_directSectorWrite) for part_directSectorWrite
    file.o(i.file_fwrite) refers to partition.o(i.part_getSect) for part_getSect
    file.o(i.file_fwrite) refers to plibc.o(i.memCpy) for memCpy
    file.o(i.file_fwrite) refers to partition.o(i.part_relSect) for part_relSect
    file.o(i.file_normalToFatName) refers to file.o(i.file_validateChar) for file_validateChar
    file.o(i.file_read) refers to file.o(i.file_fread) for file_fread
    file.o(i.file_requiredCluster) refers to fat.o(i.fat_countClustersInChain) for fat_countClustersInChain
    file.o(i.file_write) refers to file.o(i.file_fwrite) for file_fwrite
    fs.o(i.fs_clearCluster) refers to fs.o(i.fs_clusterToSector) for fs_clusterToSector
    fs.o(i.fs_clearCluster) refers to partition.o(i.part_getSect) for part_getSect
    fs.o(i.fs_clearCluster) refers to plibc.o(i.memClr) for memClr
    fs.o(i.fs_clearCluster) refers to partition.o(i.part_relSect) for part_relSect
    fs.o(i.fs_findFile) refers to fs.o(i.fs_getFirstClusterRootDir) for fs_getFirstClusterRootDir
    fs.o(i.fs_findFile) refers to dir.o(i.dir_findinDir) for dir_findinDir
    fs.o(i.fs_findFile) refers to file.o(i.file_normalToFatName) for file_normalToFatName
    fs.o(i.fs_findFreeFile) refers to fs.o(i.fs_findFile) for fs_findFile
    fs.o(i.fs_findFreeFile) refers to dir.o(i.dir_getFatFileName) for dir_getFatFileName
    fs.o(i.fs_findFreeFile) refers to dir.o(i.dir_findinDir) for dir_findinDir
    fs.o(i.fs_findFreeFile) refers to dir.o(i.dir_addCluster) for dir_addCluster
    fs.o(i.fs_flushFs) refers to partition.o(i.part_flushPart) for part_flushPart
    fs.o(i.fs_getFsInfo) refers to partition.o(i.part_getSect) for part_getSect
    fs.o(i.fs_getFsInfo) refers to extract.o(i.ex_getb32) for ex_getb32
    fs.o(i.fs_getFsInfo) refers to partition.o(i.part_relSect) for part_relSect
    fs.o(i.fs_getFsInfo) refers to fat.o(i.fat_countFreeClusters) for fat_countFreeClusters
    fs.o(i.fs_getLastCluster) refers to fat.o(i.fat_getNextClusterChain) for fat_getNextClusterChain
    fs.o(i.fs_getNextFreeCluster) refers to fat.o(i.fat_getNextClusterAddress) for fat_getNextClusterAddress
    fs.o(i.fs_initCurrentDir) refers to fs.o(i.fs_getFirstClusterRootDir) for fs_getFirstClusterRootDir
    fs.o(i.fs_initFs) refers to fs.o(i.fs_isValidFat) for fs_isValidFat
    fs.o(i.fs_initFs) refers to fs.o(i.fs_loadVolumeId) for fs_loadVolumeId
    fs.o(i.fs_initFs) refers to fs.o(i.fs_verifySanity) for fs_verifySanity
    fs.o(i.fs_initFs) refers to fs.o(i.fs_countDataSectors) for fs_countDataSectors
    fs.o(i.fs_initFs) refers to fs.o(i.fs_determineFatType) for fs_determineFatType
    fs.o(i.fs_initFs) refers to fs.o(i.fs_findFirstSectorRootDir) for fs_findFirstSectorRootDir
    fs.o(i.fs_initFs) refers to fs.o(i.fs_initCurrentDir) for fs_initCurrentDir
    fs.o(i.fs_isValidFat) refers to partition.o(i.part_getSect) for part_getSect
    fs.o(i.fs_isValidFat) refers to extract.o(i.ex_getb16) for ex_getb16
    fs.o(i.fs_isValidFat) refers to partition.o(i.part_relSect) for part_relSect
    fs.o(i.fs_loadVolumeId) refers to partition.o(i.part_getSect) for part_getSect
    fs.o(i.fs_loadVolumeId) refers to extract.o(i.ex_getb16) for ex_getb16
    fs.o(i.fs_loadVolumeId) refers to extract.o(i.ex_getb32) for ex_getb32
    fs.o(i.fs_loadVolumeId) refers to partition.o(i.part_relSect) for part_relSect
    fs.o(i.fs_setFsInfo) refers to partition.o(i.part_getSect) for part_getSect
    fs.o(i.fs_setFsInfo) refers to extract.o(i.ex_getb32) for ex_getb32
    fs.o(i.fs_setFsInfo) refers to partition.o(i.part_relSect) for part_relSect
    fs.o(i.fs_setFsInfo) refers to extract.o(i.ex_setb32) for ex_setb32
    fs.o(i.fs_umount) refers to fs.o(i.fs_flushFs) for fs_flushFs
    ioman.o(i.ioman_directSectorRead) refers to ioman.o(i.ioman_findSectorInCache) for ioman_findSectorInCache
    ioman.o(i.ioman_directSectorRead) refers to ioman.o(i.ioman_getPtr) for ioman_getPtr
    ioman.o(i.ioman_directSectorRead) refers to plibc.o(i.memCpy) for memCpy
    ioman.o(i.ioman_directSectorRead) refers to ioman.o(i.ioman_findFreeSpot) for ioman_findFreeSpot
    ioman.o(i.ioman_directSectorRead) refers to ioman.o(i.ioman_putSectorInCache) for ioman_putSectorInCache
    ioman.o(i.ioman_directSectorRead) refers to ioman.o(i.ioman_readSector) for ioman_readSector
    ioman.o(i.ioman_directSectorWrite) refers to ioman.o(i.ioman_findSectorInCache) for ioman_findSectorInCache
    ioman.o(i.ioman_directSectorWrite) refers to ioman.o(i.ioman_getPtr) for ioman_getPtr
    ioman.o(i.ioman_directSectorWrite) refers to plibc.o(i.memCpy) for memCpy
    ioman.o(i.ioman_directSectorWrite) refers to ioman.o(i.ioman_setAttr) for ioman_setAttr
    ioman.o(i.ioman_directSectorWrite) refers to ioman.o(i.ioman_findFreeSpot) for ioman_findFreeSpot
    ioman.o(i.ioman_directSectorWrite) refers to ioman.o(i.ioman_resetCacheItem) for ioman_resetCacheItem
    ioman.o(i.ioman_directSectorWrite) refers to ioman.o(i.ioman_writeSector) for ioman_writeSector
    ioman.o(i.ioman_findFreeSpot) refers to ioman.o(i.ioman_getAttr) for ioman_getAttr
    ioman.o(i.ioman_findOverallocableSpot) refers to ioman.o(i.ioman_getAttr) for ioman_getAttr
    ioman.o(i.ioman_findOverallocableSpot) refers to ioman.o(i.ioman_getRefCnt) for ioman_getRefCnt
    ioman.o(i.ioman_findSectorInCache) refers to ioman.o(i.ioman_getAttr) for ioman_getAttr
    ioman.o(i.ioman_findUnusedSpot) refers to ioman.o(i.ioman_getUseCnt) for ioman_getUseCnt
    ioman.o(i.ioman_findUnusedSpot) refers to ioman.o(i.ioman_getAttr) for ioman_getAttr
    ioman.o(i.ioman_findUnusedSpot) refers to ioman.o(i.ioman_getRefCnt) for ioman_getRefCnt
    ioman.o(i.ioman_flushAll) refers to ioman.o(i.ioman_getAttr) for ioman_getAttr
    ioman.o(i.ioman_flushAll) refers to ioman.o(i.ioman_flushSector) for ioman_flushSector
    ioman.o(i.ioman_flushAll) refers to ioman.o(i.ioman_setAttr) for ioman_setAttr
    ioman.o(i.ioman_flushRange) refers to ioman.o(i.ioman_getAttr) for ioman_getAttr
    ioman.o(i.ioman_flushRange) refers to ioman.o(i.ioman_flushSector) for ioman_flushSector
    ioman.o(i.ioman_flushRange) refers to ioman.o(i.ioman_setAttr) for ioman_setAttr
    ioman.o(i.ioman_flushSector) refers to ioman.o(i.ioman_getPtr) for ioman_getPtr
    ioman.o(i.ioman_flushSector) refers to ioman.o(i.ioman_getAttr) for ioman_getAttr
    ioman.o(i.ioman_flushSector) refers to ioman.o(i.ioman_writeSector) for ioman_writeSector
    ioman.o(i.ioman_flushSector) refers to ioman.o(i.ioman_setAttr) for ioman_setAttr
    ioman.o(i.ioman_getSector) refers to ioman.o(i.ioman_findSectorInCache) for ioman_findSectorInCache
    ioman.o(i.ioman_getSector) refers to ioman.o(i.ioman_setAttr) for ioman_setAttr
    ioman.o(i.ioman_getSector) refers to ioman.o(i.ioman_incUseCnt) for ioman_incUseCnt
    ioman.o(i.ioman_getSector) refers to ioman.o(i.ioman_incRefCnt) for ioman_incRefCnt
    ioman.o(i.ioman_getSector) refers to ioman.o(i.ioman_getPtr) for ioman_getPtr
    ioman.o(i.ioman_getSector) refers to ioman.o(i.ioman_findFreeSpot) for ioman_findFreeSpot
    ioman.o(i.ioman_getSector) refers to ioman.o(i.ioman_findUnusedSpot) for ioman_findUnusedSpot
    ioman.o(i.ioman_getSector) refers to ioman.o(i.ioman_getAttr) for ioman_getAttr
    ioman.o(i.ioman_getSector) refers to ioman.o(i.ioman_flushSector) for ioman_flushSector
    ioman.o(i.ioman_getSector) refers to ioman.o(i.ioman_resetCacheItem) for ioman_resetCacheItem
    ioman.o(i.ioman_getSector) refers to ioman.o(i.ioman_putSectorInCache) for ioman_putSectorInCache
    ioman.o(i.ioman_getSector) refers to ioman.o(i.ioman_findOverallocableSpot) for ioman_findOverallocableSpot
    ioman.o(i.ioman_getSector) refers to ioman.o(i.ioman_push) for ioman_push
    ioman.o(i.ioman_init) refers to ioman.o(i.ioman_getBuffer) for ioman_getBuffer
    ioman.o(i.ioman_init) refers to ioman.o(i.ioman_reset) for ioman_reset
    ioman.o(i.ioman_printStatus) refers to ioman.o(i.ioman_getAttr) for ioman_getAttr
    ioman.o(i.ioman_putSectorInCache) refers to ioman.o(i.ioman_getPtr) for ioman_getPtr
    ioman.o(i.ioman_putSectorInCache) refers to ioman.o(i.ioman_readSector) for ioman_readSector
    ioman.o(i.ioman_putSectorInCache) refers to ioman.o(i.ioman_setAttr) for ioman_setAttr
    ioman.o(i.ioman_readSector) refers to sd_stm32.o(i.if_readBuf) for if_readBuf
    ioman.o(i.ioman_releaseSector) refers to ioman.o(i.ioman_getBp) for ioman_getBp
    ioman.o(i.ioman_releaseSector) refers to ioman.o(i.ioman_decUseCnt) for ioman_decUseCnt
    ioman.o(i.ioman_releaseSector) refers to ioman.o(i.ioman_getUseCnt) for ioman_getUseCnt
    ioman.o(i.ioman_releaseSector) refers to ioman.o(i.ioman_getAttr) for ioman_getAttr
    ioman.o(i.ioman_releaseSector) refers to ioman.o(i.ioman_flushSector) for ioman_flushSector
    ioman.o(i.ioman_releaseSector) refers to ioman.o(i.ioman_pop) for ioman_pop
    ioman.o(i.ioman_releaseSector) refers to ioman.o(i.ioman_putSectorInCache) for ioman_putSectorInCache
    ioman.o(i.ioman_reset) refers to plibc.o(i.memClr) for memClr
    ioman.o(i.ioman_writeSector) refers to sd_stm32.o(i.if_writeBuf) for if_writeBuf
    ls.o(i.ls_fileEntryToDirListEntry) refers to plibc.o(i.memCpy) for memCpy
    ls.o(i.ls_fileEntryToDirListEntry) refers to extract.o(i.ex_getb32) for ex_getb32
    ls.o(i.ls_getDirEntry) refers to ls.o(i.ls_getRootAreaEntry) for ls_getRootAreaEntry
    ls.o(i.ls_getDirEntry) refers to ls.o(i.ls_getRealDirEntry) for ls_getRealDirEntry
    ls.o(i.ls_getNext) refers to ls.o(i.ls_getDirEntry) for ls_getDirEntry
    ls.o(i.ls_getNext) refers to ls.o(i.ls_isValidFileEntry) for ls_isValidFileEntry
    ls.o(i.ls_getRealDirEntry) refers to fat.o(i.fat_LogicToDiscCluster) for fat_LogicToDiscCluster
    ls.o(i.ls_getRealDirEntry) refers to fs.o(i.fs_clusterToSector) for fs_clusterToSector
    ls.o(i.ls_getRealDirEntry) refers to partition.o(i.part_getSect) for part_getSect
    ls.o(i.ls_getRealDirEntry) refers to ls.o(i.ls_fileEntryToDirListEntry) for ls_fileEntryToDirListEntry
    ls.o(i.ls_getRealDirEntry) refers to partition.o(i.part_relSect) for part_relSect
    ls.o(i.ls_getRootAreaEntry) refers to partition.o(i.part_getSect) for part_getSect
    ls.o(i.ls_getRootAreaEntry) refers to ls.o(i.ls_fileEntryToDirListEntry) for ls_fileEntryToDirListEntry
    ls.o(i.ls_getRootAreaEntry) refers to partition.o(i.part_relSect) for part_relSect
    ls.o(i.ls_openDir) refers to fs.o(i.fs_findFile) for fs_findFile
    ls.o(i.ls_openDir) refers to fs.o(i.fs_initClusterChain) for fs_initClusterChain
    ls.o(i.ls_openDir) refers to plibc.o(i.memClr) for memClr
    mkfs.o(i.mkfs_makevfat) refers to plibc.o(i.memClr) for memClr
    mkfs.o(i.mkfs_makevfat) refers to plibc.o(i.memCpy) for memCpy
    mkfs.o(i.mkfs_makevfat) refers to partition.o(i.part_writeBuf) for part_writeBuf
    partition.o(i.part_directSectorRead) refers to partition.o(i.part_getRealLBA) for part_getRealLBA
    partition.o(i.part_directSectorRead) refers to ioman.o(i.ioman_directSectorRead) for ioman_directSectorRead
    partition.o(i.part_directSectorWrite) refers to partition.o(i.part_getRealLBA) for part_getRealLBA
    partition.o(i.part_directSectorWrite) refers to ioman.o(i.ioman_directSectorWrite) for ioman_directSectorWrite
    partition.o(i.part_flushPart) refers to partition.o(i.part_getRealLBA) for part_getRealLBA
    partition.o(i.part_flushPart) refers to ioman.o(i.ioman_flushRange) for ioman_flushRange
    partition.o(i.part_getSect) refers to partition.o(i.part_getRealLBA) for part_getRealLBA
    partition.o(i.part_getSect) refers to ioman.o(i.ioman_getSector) for ioman_getSector
    partition.o(i.part_initPartition) refers to partition.o(i.part_isFatPart) for part_isFatPart
    partition.o(i.part_readBuf) refers to partition.o(i.part_getRealLBA) for part_getRealLBA
    partition.o(i.part_readBuf) refers to sd_stm32.o(i.if_readBuf) for if_readBuf
    partition.o(i.part_relSect) refers to ioman.o(i.ioman_releaseSector) for ioman_releaseSector
    partition.o(i.part_writeBuf) refers to partition.o(i.part_getRealLBA) for part_getRealLBA
    partition.o(i.part_writeBuf) refers to sd_stm32.o(i.if_writeBuf) for if_writeBuf
    ui.o(i.listFiles) refers to partition.o(i.part_readBuf) for part_readBuf
    ui.o(i.listFiles) refers to fs.o(i.fs_findFile) for fs_findFile
    ui.o(i.listFiles) refers to memcpya.o(.text) for __aeabi_memcpy4
    ui.o(i.listFiles) refers to file.o(i.file_fread) for file_fread
    ui.o(i.mkdir) refers to fs.o(i.fs_findFile) for fs_findFile
    ui.o(i.mkdir) refers to fs.o(i.fs_findFreeFile) for fs_findFreeFile
    ui.o(i.mkdir) refers to fs.o(i.fs_giveFreeClusterHint) for fs_giveFreeClusterHint
    ui.o(i.mkdir) refers to fs.o(i.fs_getNextFreeCluster) for fs_getNextFreeCluster
    ui.o(i.mkdir) refers to fs.o(i.fs_clearCluster) for fs_clearCluster
    ui.o(i.mkdir) refers to partition.o(i.part_getSect) for part_getSect
    ui.o(i.mkdir) refers to dir.o(i.dir_getFatFileName) for dir_getFatFileName
    ui.o(i.mkdir) refers to plibc.o(i.memClr) for memClr
    ui.o(i.mkdir) refers to plibc.o(i.memCpy) for memCpy
    ui.o(i.mkdir) refers to partition.o(i.part_relSect) for part_relSect
    ui.o(i.mkdir) refers to fs.o(i.fs_clusterToSector) for fs_clusterToSector
    ui.o(i.mkdir) refers to fat.o(i.fat_giveEocMarker) for fat_giveEocMarker
    ui.o(i.mkdir) refers to fat.o(i.fat_setNextClusterAddress) for fat_setNextClusterAddress
    ui.o(i.rmfile) refers to fs.o(i.fs_findFile) for fs_findFile
    ui.o(i.rmfile) refers to partition.o(i.part_getSect) for part_getSect
    ui.o(i.rmfile) refers to extract.o(i.ex_getb16) for ex_getb16
    ui.o(i.rmfile) refers to partition.o(i.part_relSect) for part_relSect
    ui.o(i.rmfile) refers to fat.o(i.fat_unlinkClusterChain) for fat_unlinkClusterChain
    sd.o(i.sd_Command) refers to sd_stm32.o(i.if_spiSend) for if_spiSend
    sd.o(i.sd_Command_crc) refers to sd_stm32.o(i.if_spiSend) for if_spiSend
    sd.o(i.sd_Command_crc) refers to sd.o(i.crc7) for crc7
    sd.o(i.sd_Init) refers to sd.o(i.sd_Command) for sd_Command
    sd.o(i.sd_Init) refers to sd.o(i.sd_Resp8b) for sd_Resp8b
    sd.o(i.sd_Init) refers to sd.o(i.sd_Resp8bError) for sd_Resp8bError
    sd.o(i.sd_Init) refers to sd.o(i.sd_Command_crc) for sd_Command_crc
    sd.o(i.sd_Init) refers to sd.o(.data) for SDcard
    sd.o(i.sd_Resp16b) refers to sd.o(i.sd_Resp8b) for sd_Resp8b
    sd.o(i.sd_Resp16b) refers to sd_stm32.o(i.if_spiSend) for if_spiSend
    sd.o(i.sd_Resp8b) refers to sd_stm32.o(i.if_spiSend) for if_spiSend
    sd.o(i.sd_State) refers to sd.o(i.sd_Command) for sd_Command
    sd.o(i.sd_State) refers to sd.o(i.sd_Resp16b) for sd_Resp16b
    sd.o(i.sd_State) refers to sd.o(i.sd_Resp8bError) for sd_Resp8bError
    sd.o(i.sd_getDriveSize) refers to sd.o(i.sd_Command) for sd_Command
    sd.o(i.sd_getDriveSize) refers to sd.o(i.sd_Resp8b) for sd_Resp8b
    sd.o(i.sd_getDriveSize) refers to sd_stm32.o(i.if_spiSend) for if_spiSend
    sd.o(i.sd_getDriveSize) refers to sd.o(i.get_spi_BaudRatePrescaler) for get_spi_BaudRatePrescaler
    sd.o(i.sd_getDriveSize) refers to sd.o(.data) for SDcard
    sd.o(i.sd_readSector) refers to sd.o(i.sd_Command) for sd_Command
    sd.o(i.sd_readSector) refers to sd.o(i.sd_Resp8b) for sd_Resp8b
    sd.o(i.sd_readSector) refers to sd.o(i.sd_Resp8bError) for sd_Resp8bError
    sd.o(i.sd_readSector) refers to sd_stm32.o(i.if_spiSend) for if_spiSend
    sd.o(i.sd_readSector) refers to sd.o(.data) for SDcard
    sd.o(i.sd_writeSector) refers to sd.o(i.sd_Command) for sd_Command
    sd.o(i.sd_writeSector) refers to sd.o(i.sd_Resp8b) for sd_Resp8b
    sd.o(i.sd_writeSector) refers to sd_stm32.o(i.if_spiSend) for if_spiSend
    sd.o(i.sd_writeSector) refers to sd.o(.data) for SDcard
    sd.o(i.sdhc_readSector) refers to sd.o(i.sd_Command_crc) for sd_Command_crc
    sd.o(i.sdhc_readSector) refers to sd.o(i.sd_Resp8b) for sd_Resp8b
    sd_stm32.o(i.SPI_Config) refers to stm32f10x_rcc.o(i.RCC_APB2PeriphClockCmd) for RCC_APB2PeriphClockCmd
    sd_stm32.o(i.SPI_Config) refers to stm32f10x_gpio.o(i.GPIO_Init) for GPIO_Init
    sd_stm32.o(i.SPI_Config) refers to stm32f10x_spi.o(i.SPI_Init) for SPI_Init
    sd_stm32.o(i.SPI_Config) refers to stm32f10x_spi.o(i.SPI_Cmd) for SPI_Cmd
    sd_stm32.o(i.if_initInterface) refers to sd_stm32.o(i.if_spiInit) for if_spiInit
    sd_stm32.o(i.if_initInterface) refers to sd.o(i.sd_Init) for sd_Init
    sd_stm32.o(i.if_initInterface) refers to sd.o(i.sd_State) for sd_State
    sd_stm32.o(i.if_initInterface) refers to sd.o(i.sd_getDriveSize) for sd_getDriveSize
    sd_stm32.o(i.if_readBuf) refers to sd.o(i.sd_readSector) for sd_readSector
    sd_stm32.o(i.if_spiInit) refers to sd_stm32.o(i.SPI_Config) for SPI_Config
    sd_stm32.o(i.if_spiInit) refers to stm32f10x_gpio.o(i.GPIO_SetBits) for GPIO_SetBits
    sd_stm32.o(i.if_spiInit) refers to sd_stm32.o(i.my_if_spiSend) for my_if_spiSend
    sd_stm32.o(i.if_spiSend) refers to stm32f10x_gpio.o(i.GPIO_ResetBits) for GPIO_ResetBits
    sd_stm32.o(i.if_spiSend) refers to stm32f10x_spi.o(i.SPI_I2S_GetFlagStatus) for SPI_I2S_GetFlagStatus
    sd_stm32.o(i.if_spiSend) refers to stm32f10x_spi.o(i.SPI_I2S_SendData) for SPI_I2S_SendData
    sd_stm32.o(i.if_spiSend) refers to stm32f10x_spi.o(i.SPI_I2S_ReceiveData) for SPI_I2S_ReceiveData
    sd_stm32.o(i.if_spiSend) refers to stm32f10x_gpio.o(i.GPIO_SetBits) for GPIO_SetBits
    sd_stm32.o(i.if_writeBuf) refers to sd.o(i.sd_writeSector) for sd_writeSector
    sd_stm32.o(i.my_if_spiSend) refers to stm32f10x_spi.o(i.SPI_I2S_SendData) for SPI_I2S_SendData
    sd_stm32.o(i.my_if_spiSend) refers to stm32f10x_spi.o(i.SPI_I2S_GetFlagStatus) for SPI_I2S_GetFlagStatus
    sd_stm32.o(i.my_if_spiSend) refers to stm32f10x_spi.o(i.SPI_I2S_ReceiveData) for SPI_I2S_ReceiveData
    httpd.o(i.Http_File_System_Init) refers to efs.o(i.efs_init) for efs_init
    httpd.o(i.Http_File_System_Init) refers to ls.o(i.ls_openDir) for ls_openDir
    httpd.o(i.Http_File_System_Init) refers to httpd.o(.bss) for myefs3
    httpd.o(i.http_accept) refers to tcp.o(i.tcp_setprio) for tcp_setprio
    httpd.o(i.http_accept) refers to httpd.o(i.http_state_alloc) for http_state_alloc
    httpd.o(i.http_accept) refers to tcp.o(i.tcp_arg) for tcp_arg
    httpd.o(i.http_accept) refers to tcp.o(i.tcp_recv) for tcp_recv
    httpd.o(i.http_accept) refers to tcp.o(i.tcp_err) for tcp_err
    httpd.o(i.http_accept) refers to tcp.o(i.tcp_poll) for tcp_poll
    httpd.o(i.http_accept) refers to tcp.o(i.tcp_sent) for tcp_sent
    httpd.o(i.http_accept) refers to httpd.o(i.http_recv) for http_recv
    httpd.o(i.http_accept) refers to httpd.o(i.http_err) for http_err
    httpd.o(i.http_accept) refers to httpd.o(i.http_poll) for http_poll
    httpd.o(i.http_accept) refers to httpd.o(i.http_sent) for http_sent
    httpd.o(i.http_check_eof) refers to httpd.o(i.http_eof) for http_eof
    httpd.o(i.http_check_eof) refers to fs_lwip.o(i.fs_bytes_left) for fs_bytes_left
    httpd.o(i.http_close_conn) refers to httpd.o(i.http_close_or_abort_conn) for http_close_or_abort_conn
    httpd.o(i.http_close_or_abort_conn) refers to tcp.o(i.tcp_arg) for tcp_arg
    httpd.o(i.http_close_or_abort_conn) refers to tcp.o(i.tcp_recv) for tcp_recv
    httpd.o(i.http_close_or_abort_conn) refers to tcp.o(i.tcp_err) for tcp_err
    httpd.o(i.http_close_or_abort_conn) refers to tcp.o(i.tcp_poll) for tcp_poll
    httpd.o(i.http_close_or_abort_conn) refers to tcp.o(i.tcp_sent) for tcp_sent
    httpd.o(i.http_close_or_abort_conn) refers to httpd.o(i.http_state_free) for http_state_free
    httpd.o(i.http_close_or_abort_conn) refers to tcp.o(i.tcp_abort) for tcp_abort
    httpd.o(i.http_close_or_abort_conn) refers to tcp.o(i.tcp_close) for tcp_close
    httpd.o(i.http_close_or_abort_conn) refers to httpd.o(i.http_poll) for http_poll
    httpd.o(i.http_eof) refers to httpd.o(i.http_close_conn) for http_close_conn
    httpd.o(i.http_err) refers to httpd.o(i.http_state_free) for http_state_free
    httpd.o(i.http_find_file) refers to file.o(i.file_fopen) for file_fopen
    httpd.o(i.http_find_file) refers to httpd.o(i.http_get_404_file) for http_get_404_file
    httpd.o(i.http_find_file) refers to strchr.o(.text) for strchr
    httpd.o(i.http_find_file) refers to httpd.o(i.http_init_file) for http_init_file
    httpd.o(i.http_find_file) refers to httpd.o(.bss) for myefs3
    httpd.o(i.http_get_404_file) refers to fs_lwip.o(i.fs_open) for fs_open
    httpd.o(i.http_init_file) refers to httpd.o(i.strnstr) for strnstr
    httpd.o(i.http_parse_request) refers to pbuf.o(i.pbuf_cat) for pbuf_cat
    httpd.o(i.http_parse_request) refers to pbuf.o(i.pbuf_ref) for pbuf_ref
    httpd.o(i.http_parse_request) refers to pbuf.o(i.pbuf_copy_partial) for pbuf_copy_partial
    httpd.o(i.http_parse_request) refers to httpd.o(i.strnstr) for strnstr
    httpd.o(i.http_parse_request) refers to strncmp.o(.text) for strncmp
    httpd.o(i.http_parse_request) refers to httpd.o(i.http_find_file) for http_find_file
    httpd.o(i.http_parse_request) refers to pbuf.o(i.pbuf_clen) for pbuf_clen
    httpd.o(i.http_parse_request) refers to httpd.o(.bss) for httpd_req_buf
    httpd.o(i.http_poll) refers to httpd.o(i.http_close_conn) for http_close_conn
    httpd.o(i.http_poll) refers to httpd.o(i.http_send) for http_send
    httpd.o(i.http_poll) refers to tcp_out.o(i.tcp_output) for tcp_output
    httpd.o(i.http_recv) refers to tcp.o(i.tcp_recved) for tcp_recved
    httpd.o(i.http_recv) refers to pbuf.o(i.pbuf_free) for pbuf_free
    httpd.o(i.http_recv) refers to httpd.o(i.http_close_conn) for http_close_conn
    httpd.o(i.http_recv) refers to httpd.o(i.http_parse_request) for http_parse_request
    httpd.o(i.http_recv) refers to httpd.o(i.http_send) for http_send
    httpd.o(i.http_send) refers to httpd.o(i.http_check_eof) for http_check_eof
    httpd.o(i.http_send) refers to httpd.o(i.http_send_data_nonssi) for http_send_data_nonssi
    httpd.o(i.http_send) refers to fs_lwip.o(i.fs_bytes_left) for fs_bytes_left
    httpd.o(i.http_send) refers to httpd.o(i.http_eof) for http_eof
    httpd.o(i.http_send_data_nonssi) refers to httpd.o(i.http_write) for http_write
    httpd.o(i.http_sent) refers to httpd.o(i.http_send) for http_send
    httpd.o(i.http_state_alloc) refers to mem.o(i.mem_malloc) for mem_malloc
    httpd.o(i.http_state_alloc) refers to httpd.o(i.http_state_init) for http_state_init
    httpd.o(i.http_state_eof) refers to fs_lwip.o(i.fs_close) for fs_close
    httpd.o(i.http_state_eof) refers to pbuf.o(i.pbuf_free) for pbuf_free
    httpd.o(i.http_state_free) refers to httpd.o(i.http_state_eof) for http_state_eof
    httpd.o(i.http_state_free) refers to mem.o(i.mem_free) for mem_free
    httpd.o(i.http_state_init) refers to memseta.o(.text) for __aeabi_memclr4
    httpd.o(i.http_write) refers to mem.o(i.mem_malloc) for mem_malloc
    httpd.o(i.http_write) refers to file.o(i.file_read) for file_read
    httpd.o(i.http_write) refers to tcp_out.o(i.tcp_write) for tcp_write
    httpd.o(i.http_write) refers to mem.o(i.mem_free) for mem_free
    httpd.o(i.http_write) refers to httpd.o(.bss) for Httpfile_CR
    httpd.o(i.httpd_init) refers to httpd.o(i.httpd_init_addr) for httpd_init_addr
    httpd.o(i.httpd_init) refers to ip_addr.o(.constdata) for ip_addr_any
    httpd.o(i.httpd_init_addr) refers to tcp.o(i.tcp_new) for tcp_new
    httpd.o(i.httpd_init_addr) refers to tcp.o(i.tcp_setprio) for tcp_setprio
    httpd.o(i.httpd_init_addr) refers to tcp.o(i.tcp_bind) for tcp_bind
    httpd.o(i.httpd_init_addr) refers to tcp.o(i.tcp_listen_with_backlog) for tcp_listen_with_backlog
    httpd.o(i.httpd_init_addr) refers to tcp.o(i.tcp_arg) for tcp_arg
    httpd.o(i.httpd_init_addr) refers to tcp.o(i.tcp_accept) for tcp_accept
    httpd.o(i.httpd_init_addr) refers to ip_addr.o(.constdata) for ip_addr_any
    httpd.o(i.httpd_init_addr) refers to httpd.o(i.http_accept) for http_accept
    httpd.o(i.strnstr) refers to strlen.o(.text) for strlen
    httpd.o(i.strnstr) refers to strncmp.o(.text) for strncmp
    httpd.o(.constdata) refers to httpd.o(.conststring) for .conststring
    fs_lwip.o(i.fs_open) refers to strcmp.o(.text) for strcmp
    fs_lwip.o(i.fs_open) refers to fs_lwip.o(.constdata) for file__index_html
    entry.o(.ARM.Collect$$$$00000000) refers (Special) to entry7.o(.ARM.Collect$$$$00000007) for _main_init
    entry.o(.ARM.Collect$$$$00000000) refers (Special) to entry5.o(.ARM.Collect$$$$00000004) for _main_scatterload
    entry.o(.ARM.Collect$$$$00000000) refers (Special) to entry2.o(.ARM.Collect$$$$00000001) for _main_stk
    dmul.o(.text) refers (Special) to iusefp.o(.text) for __I$use$fp
    dmul.o(.text) refers to depilogue.o(.text) for _double_epilogue
    dflti.o(.text) refers (Special) to iusefp.o(.text) for __I$use$fp
    dflti.o(.text) refers to depilogue.o(.text) for _double_epilogue
    dfixi.o(.text) refers (Special) to iusefp.o(.text) for __I$use$fp
    dfixi.o(.text) refers to llushr.o(.text) for __aeabi_llsr
    entry2.o(.ARM.Collect$$$$00000001) refers to entry2.o(.ARM.Collect$$$$00002712) for __lit__00000000
    entry2.o(.ARM.Collect$$$$00002712) refers to startup_stm32f10x_cl.o(STACK) for __initial_sp
    entry2.o(__vectab_stack_and_reset_area) refers to startup_stm32f10x_cl.o(STACK) for __initial_sp
    entry2.o(__vectab_stack_and_reset_area) refers to entry.o(.ARM.Collect$$$$00000000) for __main
    entry5.o(.ARM.Collect$$$$00000004) refers to init.o(.text) for __scatterload
    entry7.o(.ARM.Collect$$$$00000007) refers to main.o(i.main) for main
    depilogue.o(.text) refers to llshl.o(.text) for __aeabi_llsl
    depilogue.o(.text) refers to llushr.o(.text) for __aeabi_llsr
    init.o(.text) refers to entry5.o(.ARM.Collect$$$$00000004) for __main_after_scatterload
    ds18b20srom.o(i.DS18B20_ReadBit) refers to ds18b20srom.o(i.Set18b20IOout) for Set18b20IOout
    ds18b20srom.o(i.DS18B20_ReadBit) refers to ds18b20srom.o(i.Write18b20IO) for Write18b20IO
    ds18b20srom.o(i.DS18B20_ReadBit) refers to ds18b20srom.o(i.Delay_us) for Delay_us
    ds18b20srom.o(i.DS18B20_ReadBit) refers to ds18b20srom.o(i.Set18b20IOin) for Set18b20IOin
    ds18b20srom.o(i.DS18B20_ReadBit) refers to stm32f10x_gpio.o(i.GPIO_ReadInputDataBit) for GPIO_ReadInputDataBit


==============================================================================

Removing Unused input sections from the image.

    Removing main.o(i.Delay), (36 bytes).
    Removing stm32f107.o(i.ADC_Configuration), (80 bytes).
    Removing client_tcpudp.o(i.tcp_client_poll), (2 bytes).
    Removing client_tcpudp.o(.constdata), (1024 bytes).
    Removing filesystem.o(i.FileSysteRead), (68 bytes).
    Removing filesystem.o(i.FileSystemDelete), (16 bytes).
    Removing filesystem.o(i.FindMP3), (34 bytes).
    Removing filesystem.o(i.FindMP3fileALL), (148 bytes).
    Removing ds18b20srom.o(i.DS18B20_Read2Bit), (34 bytes).
    Removing ds18b20srom.o(i.DS18B20_ReadTemper), (108 bytes).
    Removing ds18b20srom.o(i.DS18B20_SearchROM), (286 bytes).
    Removing ds18b20srom.o(i.Delay_ms), (64 bytes).
    Removing ds18b20sech.o(i.OWFamilySkipSetup), (40 bytes).
    Removing ds18b20sech.o(i.OWNext), (8 bytes).
    Removing ds18b20sech.o(i.OWTargetSetup), (56 bytes).
    Removing ds18b20sech.o(i.OWVerify), (140 bytes).
    Removing misc.o(i.NVIC_SystemLPConfig), (44 bytes).
    Removing misc.o(i.SysTick_CLKSourceConfig), (40 bytes).
    Removing stm32f10x_adc.o(i.ADC_AnalogWatchdogCmd), (20 bytes).
    Removing stm32f10x_adc.o(i.ADC_AnalogWatchdogSingleChannelConfig), (16 bytes).
    Removing stm32f10x_adc.o(i.ADC_AnalogWatchdogThresholdsConfig), (6 bytes).
    Removing stm32f10x_adc.o(i.ADC_AutoInjectedConvCmd), (22 bytes).
    Removing stm32f10x_adc.o(i.ADC_ClearFlag), (6 bytes).
    Removing stm32f10x_adc.o(i.ADC_ClearITPendingBit), (10 bytes).
    Removing stm32f10x_adc.o(i.ADC_Cmd), (22 bytes).
    Removing stm32f10x_adc.o(i.ADC_DMACmd), (22 bytes).
    Removing stm32f10x_adc.o(i.ADC_DeInit), (92 bytes).
    Removing stm32f10x_adc.o(i.ADC_DiscModeChannelCountConfig), (24 bytes).
    Removing stm32f10x_adc.o(i.ADC_DiscModeCmd), (22 bytes).
    Removing stm32f10x_adc.o(i.ADC_ExternalTrigConvCmd), (22 bytes).
    Removing stm32f10x_adc.o(i.ADC_ExternalTrigInjectedConvCmd), (22 bytes).
    Removing stm32f10x_adc.o(i.ADC_ExternalTrigInjectedConvConfig), (16 bytes).
    Removing stm32f10x_adc.o(i.ADC_GetCalibrationStatus), (20 bytes).
    Removing stm32f10x_adc.o(i.ADC_GetConversionValue), (8 bytes).
    Removing stm32f10x_adc.o(i.ADC_GetDualModeConversionValue), (12 bytes).
    Removing stm32f10x_adc.o(i.ADC_GetFlagStatus), (18 bytes).
    Removing stm32f10x_adc.o(i.ADC_GetITStatus), (36 bytes).
    Removing stm32f10x_adc.o(i.ADC_GetInjectedConversionValue), (18 bytes).
    Removing stm32f10x_adc.o(i.ADC_GetResetCalibrationStatus), (20 bytes).
    Removing stm32f10x_adc.o(i.ADC_GetSoftwareStartConvStatus), (20 bytes).
    Removing stm32f10x_adc.o(i.ADC_GetSoftwareStartInjectedConvCmdStatus), (20 bytes).
    Removing stm32f10x_adc.o(i.ADC_ITConfig), (24 bytes).
    Removing stm32f10x_adc.o(i.ADC_Init), (80 bytes).
    Removing stm32f10x_adc.o(i.ADC_InjectedChannelConfig), (130 bytes).
    Removing stm32f10x_adc.o(i.ADC_InjectedDiscModeCmd), (22 bytes).
    Removing stm32f10x_adc.o(i.ADC_InjectedSequencerLengthConfig), (24 bytes).
    Removing stm32f10x_adc.o(i.ADC_RegularChannelConfig), (184 bytes).
    Removing stm32f10x_adc.o(i.ADC_ResetCalibration), (10 bytes).
    Removing stm32f10x_adc.o(i.ADC_SetInjectedOffset), (12 bytes).
    Removing stm32f10x_adc.o(i.ADC_SoftwareStartConvCmd), (22 bytes).
    Removing stm32f10x_adc.o(i.ADC_SoftwareStartInjectedConvCmd), (22 bytes).
    Removing stm32f10x_adc.o(i.ADC_StartCalibration), (10 bytes).
    Removing stm32f10x_adc.o(i.ADC_StructInit), (18 bytes).
    Removing stm32f10x_adc.o(i.ADC_TempSensorVrefintCmd), (44 bytes).
    Removing stm32f10x_bkp.o(i.BKP_ClearFlag), (24 bytes).
    Removing stm32f10x_bkp.o(i.BKP_ClearITPendingBit), (24 bytes).
    Removing stm32f10x_bkp.o(i.BKP_DeInit), (16 bytes).
    Removing stm32f10x_bkp.o(i.BKP_GetFlagStatus), (12 bytes).
    Removing stm32f10x_bkp.o(i.BKP_GetITStatus), (12 bytes).
    Removing stm32f10x_bkp.o(i.BKP_ITConfig), (12 bytes).
    Removing stm32f10x_bkp.o(i.BKP_RTCOutputConfig), (36 bytes).
    Removing stm32f10x_bkp.o(i.BKP_ReadBackupRegister), (16 bytes).
    Removing stm32f10x_bkp.o(i.BKP_SetRTCCalibrationValue), (36 bytes).
    Removing stm32f10x_bkp.o(i.BKP_TamperPinCmd), (12 bytes).
    Removing stm32f10x_bkp.o(i.BKP_TamperPinLevelConfig), (12 bytes).
    Removing stm32f10x_bkp.o(i.BKP_WriteBackupRegister), (16 bytes).
    Removing stm32f10x_can.o(i.CAN_CancelTransmit), (48 bytes).
    Removing stm32f10x_can.o(i.CAN_ClearFlag), (8 bytes).
    Removing stm32f10x_can.o(i.CAN_ClearITPendingBit), (166 bytes).
    Removing stm32f10x_can.o(i.CAN_DBGFreeze), (22 bytes).
    Removing stm32f10x_can.o(i.CAN_DeInit), (56 bytes).
    Removing stm32f10x_can.o(i.CAN_FIFORelease), (14 bytes).
    Removing stm32f10x_can.o(i.CAN_FilterInit), (280 bytes).
    Removing stm32f10x_can.o(i.CAN_GetFlagStatus), (18 bytes).
    Removing stm32f10x_can.o(i.CAN_GetITStatus), (238 bytes).
    Removing stm32f10x_can.o(i.CAN_ITConfig), (18 bytes).
    Removing stm32f10x_can.o(i.CAN_Init), (284 bytes).
    Removing stm32f10x_can.o(i.CAN_MessagePending), (30 bytes).
    Removing stm32f10x_can.o(i.CAN_Receive), (234 bytes).
    Removing stm32f10x_can.o(i.CAN_SlaveStartBank), (72 bytes).
    Removing stm32f10x_can.o(i.CAN_Sleep), (30 bytes).
    Removing stm32f10x_can.o(i.CAN_StructInit), (32 bytes).
    Removing stm32f10x_can.o(i.CAN_Transmit), (294 bytes).
    Removing stm32f10x_can.o(i.CAN_TransmitStatus), (140 bytes).
    Removing stm32f10x_can.o(i.CAN_WakeUp), (48 bytes).
    Removing stm32f10x_can.o(i.CheckITStatus), (16 bytes).
    Removing stm32f10x_crc.o(i.CRC_CalcBlockCRC), (36 bytes).
    Removing stm32f10x_crc.o(i.CRC_CalcCRC), (16 bytes).
    Removing stm32f10x_crc.o(i.CRC_GetCRC), (12 bytes).
    Removing stm32f10x_crc.o(i.CRC_GetIDRegister), (12 bytes).
    Removing stm32f10x_crc.o(i.CRC_ResetDR), (12 bytes).
    Removing stm32f10x_crc.o(i.CRC_SetIDRegister), (12 bytes).
    Removing stm32f10x_dac.o(i.DAC_Cmd), (60 bytes).
    Removing stm32f10x_dac.o(i.DAC_DMACmd), (60 bytes).
    Removing stm32f10x_dac.o(i.DAC_DeInit), (22 bytes).
    Removing stm32f10x_dac.o(i.DAC_DualSoftwareTriggerCmd), (44 bytes).
    Removing stm32f10x_dac.o(i.DAC_GetDataOutputValue), (24 bytes).
    Removing stm32f10x_dac.o(i.DAC_Init), (68 bytes).
    Removing stm32f10x_dac.o(i.DAC_SetChannel1Data), (20 bytes).
    Removing stm32f10x_dac.o(i.DAC_SetChannel2Data), (20 bytes).
    Removing stm32f10x_dac.o(i.DAC_SetDualChannelData), (36 bytes).
    Removing stm32f10x_dac.o(i.DAC_SoftwareTriggerCmd), (68 bytes).
    Removing stm32f10x_dac.o(i.DAC_StructInit), (12 bytes).
    Removing stm32f10x_dac.o(i.DAC_WaveGenerationCmd), (52 bytes).
    Removing stm32f10x_dbgmcu.o(i.DBGMCU_Config), (32 bytes).
    Removing stm32f10x_dbgmcu.o(i.DBGMCU_GetDEVID), (16 bytes).
    Removing stm32f10x_dbgmcu.o(i.DBGMCU_GetREVID), (12 bytes).
    Removing stm32f10x_dma.o(i.DMA_ClearFlag), (28 bytes).
    Removing stm32f10x_dma.o(i.DMA_ClearITPendingBit), (28 bytes).
    Removing stm32f10x_dma.o(i.DMA_Cmd), (22 bytes).
    Removing stm32f10x_dma.o(i.DMA_DeInit), (336 bytes).
    Removing stm32f10x_dma.o(i.DMA_GetCurrDataCounter), (8 bytes).
    Removing stm32f10x_dma.o(i.DMA_GetFlagStatus), (44 bytes).
    Removing stm32f10x_dma.o(i.DMA_GetITStatus), (44 bytes).
    Removing stm32f10x_dma.o(i.DMA_ITConfig), (18 bytes).
    Removing stm32f10x_dma.o(i.DMA_Init), (60 bytes).
    Removing stm32f10x_dma.o(i.DMA_StructInit), (26 bytes).
    Removing stm32f10x_exti.o(i.EXTI_ClearFlag), (12 bytes).
    Removing stm32f10x_exti.o(i.EXTI_ClearITPendingBit), (12 bytes).
    Removing stm32f10x_exti.o(i.EXTI_DeInit), (52 bytes).
    Removing stm32f10x_exti.o(i.EXTI_GenerateSWInterrupt), (24 bytes).
    Removing stm32f10x_exti.o(i.EXTI_GetFlagStatus), (24 bytes).
    Removing stm32f10x_exti.o(i.EXTI_GetITStatus), (44 bytes).
    Removing stm32f10x_exti.o(i.EXTI_Init), (172 bytes).
    Removing stm32f10x_exti.o(i.EXTI_StructInit), (16 bytes).
    Removing stm32f10x_flash.o(i.FLASH_ClearFlag), (12 bytes).
    Removing stm32f10x_flash.o(i.FLASH_EnableWriteProtection), (204 bytes).
    Removing stm32f10x_flash.o(i.FLASH_EraseAllPages), (76 bytes).
    Removing stm32f10x_flash.o(i.FLASH_EraseOptionBytes), (160 bytes).
    Removing stm32f10x_flash.o(i.FLASH_ErasePage), (80 bytes).
    Removing stm32f10x_flash.o(i.FLASH_GetFlagStatus), (48 bytes).
    Removing stm32f10x_flash.o(i.FLASH_GetPrefetchBufferStatus), (24 bytes).
    Removing stm32f10x_flash.o(i.FLASH_GetReadOutProtectionStatus), (24 bytes).
    Removing stm32f10x_flash.o(i.FLASH_GetStatus), (56 bytes).
    Removing stm32f10x_flash.o(i.FLASH_GetUserOptionByte), (12 bytes).
    Removing stm32f10x_flash.o(i.FLASH_GetWriteProtectionOptionByte), (12 bytes).
    Removing stm32f10x_flash.o(i.FLASH_HalfCycleAccessCmd), (28 bytes).
    Removing stm32f10x_flash.o(i.FLASH_ITConfig), (32 bytes).
    Removing stm32f10x_flash.o(i.FLASH_Lock), (20 bytes).
    Removing stm32f10x_flash.o(i.FLASH_PrefetchBufferCmd), (28 bytes).
    Removing stm32f10x_flash.o(i.FLASH_ProgramHalfWord), (68 bytes).
    Removing stm32f10x_flash.o(i.FLASH_ProgramOptionByteData), (84 bytes).
    Removing stm32f10x_flash.o(i.FLASH_ProgramWord), (112 bytes).
    Removing stm32f10x_flash.o(i.FLASH_ReadOutProtection), (172 bytes).
    Removing stm32f10x_flash.o(i.FLASH_SetLatency), (24 bytes).
    Removing stm32f10x_flash.o(i.FLASH_Unlock), (24 bytes).
    Removing stm32f10x_flash.o(i.FLASH_UserOptionByteConfig), (108 bytes).
    Removing stm32f10x_flash.o(i.FLASH_WaitForLastOperation), (42 bytes).
    Removing stm32f10x_flash.o(i.delay), (14 bytes).
    Removing stm32f10x_fsmc.o(i.FSMC_ClearFlag), (72 bytes).
    Removing stm32f10x_fsmc.o(i.FSMC_ClearITPendingBit), (72 bytes).
    Removing stm32f10x_fsmc.o(i.FSMC_GetECC), (28 bytes).
    Removing stm32f10x_fsmc.o(i.FSMC_GetFlagStatus), (56 bytes).
    Removing stm32f10x_fsmc.o(i.FSMC_GetITStatus), (68 bytes).
    Removing stm32f10x_fsmc.o(i.FSMC_ITConfig), (136 bytes).
    Removing stm32f10x_fsmc.o(i.FSMC_NANDCmd), (92 bytes).
    Removing stm32f10x_fsmc.o(i.FSMC_NANDDeInit), (72 bytes).
    Removing stm32f10x_fsmc.o(i.FSMC_NANDECCCmd), (92 bytes).
    Removing stm32f10x_fsmc.o(i.FSMC_NANDInit), (140 bytes).
    Removing stm32f10x_fsmc.o(i.FSMC_NANDStructInit), (54 bytes).
    Removing stm32f10x_fsmc.o(i.FSMC_NORSRAMCmd), (52 bytes).
    Removing stm32f10x_fsmc.o(i.FSMC_NORSRAMDeInit), (56 bytes).
    Removing stm32f10x_fsmc.o(i.FSMC_NORSRAMInit), (220 bytes).
    Removing stm32f10x_fsmc.o(i.FSMC_NORSRAMStructInit), (112 bytes).
    Removing stm32f10x_fsmc.o(i.FSMC_PCCARDCmd), (48 bytes).
    Removing stm32f10x_fsmc.o(i.FSMC_PCCARDDeInit), (48 bytes).
    Removing stm32f10x_fsmc.o(i.FSMC_PCCARDInit), (136 bytes).
    Removing stm32f10x_fsmc.o(i.FSMC_PCCARDStructInit), (60 bytes).
    Removing stm32f10x_gpio.o(i.GPIO_AFIODeInit), (20 bytes).
    Removing stm32f10x_gpio.o(i.GPIO_DeInit), (200 bytes).
    Removing stm32f10x_gpio.o(i.GPIO_EXTILineConfig), (64 bytes).
    Removing stm32f10x_gpio.o(i.GPIO_EventOutputCmd), (12 bytes).
    Removing stm32f10x_gpio.o(i.GPIO_EventOutputConfig), (32 bytes).
    Removing stm32f10x_gpio.o(i.GPIO_PinLockConfig), (18 bytes).
    Removing stm32f10x_gpio.o(i.GPIO_ReadInputData), (8 bytes).
    Removing stm32f10x_gpio.o(i.GPIO_ReadOutputData), (8 bytes).
    Removing stm32f10x_gpio.o(i.GPIO_ReadOutputDataBit), (18 bytes).
    Removing stm32f10x_gpio.o(i.GPIO_StructInit), (16 bytes).
    Removing stm32f10x_gpio.o(i.GPIO_Write), (4 bytes).
    Removing stm32f10x_gpio.o(i.GPIO_WriteBit), (10 bytes).
    Removing stm32f10x_i2c.o(i.I2C_ARPCmd), (24 bytes).
    Removing stm32f10x_i2c.o(i.I2C_AcknowledgeConfig), (24 bytes).
    Removing stm32f10x_i2c.o(i.I2C_CalculatePEC), (24 bytes).
    Removing stm32f10x_i2c.o(i.I2C_CheckEvent), (38 bytes).
    Removing stm32f10x_i2c.o(i.I2C_ClearFlag), (12 bytes).
    Removing stm32f10x_i2c.o(i.I2C_ClearITPendingBit), (12 bytes).
    Removing stm32f10x_i2c.o(i.I2C_Cmd), (24 bytes).
    Removing stm32f10x_i2c.o(i.I2C_DMACmd), (24 bytes).
    Removing stm32f10x_i2c.o(i.I2C_DMALastTransferCmd), (24 bytes).
    Removing stm32f10x_i2c.o(i.I2C_DeInit), (56 bytes).
    Removing stm32f10x_i2c.o(i.I2C_DualAddressCmd), (24 bytes).
    Removing stm32f10x_i2c.o(i.I2C_FastModeDutyCycleConfig), (28 bytes).
    Removing stm32f10x_i2c.o(i.I2C_GeneralCallCmd), (24 bytes).
    Removing stm32f10x_i2c.o(i.I2C_GenerateSTART), (24 bytes).
    Removing stm32f10x_i2c.o(i.I2C_GenerateSTOP), (24 bytes).
    Removing stm32f10x_i2c.o(i.I2C_GetFlagStatus), (42 bytes).
    Removing stm32f10x_i2c.o(i.I2C_GetITStatus), (38 bytes).
    Removing stm32f10x_i2c.o(i.I2C_GetLastEvent), (26 bytes).
    Removing stm32f10x_i2c.o(i.I2C_GetPEC), (8 bytes).
    Removing stm32f10x_i2c.o(i.I2C_ITConfig), (24 bytes).
    Removing stm32f10x_i2c.o(i.I2C_Init), (236 bytes).
    Removing stm32f10x_i2c.o(i.I2C_OwnAddress2Config), (22 bytes).
    Removing stm32f10x_i2c.o(i.I2C_PECPositionConfig), (28 bytes).
    Removing stm32f10x_i2c.o(i.I2C_ReadRegister), (12 bytes).
    Removing stm32f10x_i2c.o(i.I2C_ReceiveData), (8 bytes).
    Removing stm32f10x_i2c.o(i.I2C_SMBusAlertConfig), (28 bytes).
    Removing stm32f10x_i2c.o(i.I2C_Send7bitAddress), (18 bytes).
    Removing stm32f10x_i2c.o(i.I2C_SendData), (4 bytes).
    Removing stm32f10x_i2c.o(i.I2C_SoftwareResetCmd), (22 bytes).
    Removing stm32f10x_i2c.o(i.I2C_StretchClockCmd), (24 bytes).
    Removing stm32f10x_i2c.o(i.I2C_StructInit), (30 bytes).
    Removing stm32f10x_i2c.o(i.I2C_TransmitPEC), (24 bytes).
    Removing stm32f10x_iwdg.o(i.IWDG_Enable), (16 bytes).
    Removing stm32f10x_iwdg.o(i.IWDG_GetFlagStatus), (24 bytes).
    Removing stm32f10x_iwdg.o(i.IWDG_ReloadCounter), (16 bytes).
    Removing stm32f10x_iwdg.o(i.IWDG_SetPrescaler), (12 bytes).
    Removing stm32f10x_iwdg.o(i.IWDG_SetReload), (12 bytes).
    Removing stm32f10x_iwdg.o(i.IWDG_WriteAccessCmd), (12 bytes).
    Removing stm32f10x_pwr.o(i.PWR_BackupAccessCmd), (12 bytes).
    Removing stm32f10x_pwr.o(i.PWR_ClearFlag), (20 bytes).
    Removing stm32f10x_pwr.o(i.PWR_DeInit), (22 bytes).
    Removing stm32f10x_pwr.o(i.PWR_EnterSTANDBYMode), (56 bytes).
    Removing stm32f10x_pwr.o(i.PWR_EnterSTOPMode), (56 bytes).
    Removing stm32f10x_pwr.o(i.PWR_GetFlagStatus), (24 bytes).
    Removing stm32f10x_pwr.o(i.PWR_PVDCmd), (12 bytes).
    Removing stm32f10x_pwr.o(i.PWR_PVDLevelConfig), (24 bytes).
    Removing stm32f10x_pwr.o(i.PWR_WakeUpPinCmd), (12 bytes).
    Removing stm32f10x_rcc.o(i.RCC_ADCCLKConfig), (24 bytes).
    Removing stm32f10x_rcc.o(i.RCC_APB1PeriphResetCmd), (32 bytes).
    Removing stm32f10x_rcc.o(i.RCC_APB2PeriphResetCmd), (32 bytes).
    Removing stm32f10x_rcc.o(i.RCC_AdjustHSICalibrationValue), (24 bytes).
    Removing stm32f10x_rcc.o(i.RCC_BackupResetCmd), (12 bytes).
    Removing stm32f10x_rcc.o(i.RCC_ClearFlag), (20 bytes).
    Removing stm32f10x_rcc.o(i.RCC_ClearITPendingBit), (12 bytes).
    Removing stm32f10x_rcc.o(i.RCC_ClockSecuritySystemCmd), (12 bytes).
    Removing stm32f10x_rcc.o(i.RCC_DeInit), (92 bytes).
    Removing stm32f10x_rcc.o(i.RCC_GetFlagStatus), (60 bytes).
    Removing stm32f10x_rcc.o(i.RCC_GetITStatus), (24 bytes).
    Removing stm32f10x_rcc.o(i.RCC_GetSYSCLKSource), (16 bytes).
    Removing stm32f10x_rcc.o(i.RCC_HCLKConfig), (24 bytes).
    Removing stm32f10x_rcc.o(i.RCC_HSEConfig), (76 bytes).
    Removing stm32f10x_rcc.o(i.RCC_HSICmd), (12 bytes).
    Removing stm32f10x_rcc.o(i.RCC_I2S2CLKConfig), (12 bytes).
    Removing stm32f10x_rcc.o(i.RCC_I2S3CLKConfig), (12 bytes).
    Removing stm32f10x_rcc.o(i.RCC_ITConfig), (36 bytes).
    Removing stm32f10x_rcc.o(i.RCC_LSEConfig), (52 bytes).
    Removing stm32f10x_rcc.o(i.RCC_LSICmd), (12 bytes).
    Removing stm32f10x_rcc.o(i.RCC_OTGFSCLKConfig), (12 bytes).
    Removing stm32f10x_rcc.o(i.RCC_PCLK1Config), (24 bytes).
    Removing stm32f10x_rcc.o(i.RCC_PCLK2Config), (24 bytes).
    Removing stm32f10x_rcc.o(i.RCC_PLL2Cmd), (12 bytes).
    Removing stm32f10x_rcc.o(i.RCC_PLL2Config), (24 bytes).
    Removing stm32f10x_rcc.o(i.RCC_PLL3Cmd), (12 bytes).
    Removing stm32f10x_rcc.o(i.RCC_PLL3Config), (24 bytes).
    Removing stm32f10x_rcc.o(i.RCC_PLLCmd), (12 bytes).
    Removing stm32f10x_rcc.o(i.RCC_PLLConfig), (28 bytes).
    Removing stm32f10x_rcc.o(i.RCC_PREDIV1Config), (32 bytes).
    Removing stm32f10x_rcc.o(i.RCC_PREDIV2Config), (24 bytes).
    Removing stm32f10x_rcc.o(i.RCC_RTCCLKCmd), (12 bytes).
    Removing stm32f10x_rcc.o(i.RCC_RTCCLKConfig), (16 bytes).
    Removing stm32f10x_rcc.o(i.RCC_SYSCLKConfig), (24 bytes).
    Removing stm32f10x_rcc.o(i.RCC_WaitForHSEStartUp), (48 bytes).
    Removing stm32f10x_rtc.o(i.RTC_ClearFlag), (32 bytes).
    Removing stm32f10x_rtc.o(i.RTC_ClearITPendingBit), (32 bytes).
    Removing stm32f10x_rtc.o(i.RTC_EnterConfigMode), (24 bytes).
    Removing stm32f10x_rtc.o(i.RTC_ExitConfigMode), (28 bytes).
    Removing stm32f10x_rtc.o(i.RTC_GetCounter), (28 bytes).
    Removing stm32f10x_rtc.o(i.RTC_GetDivider), (36 bytes).
    Removing stm32f10x_rtc.o(i.RTC_GetFlagStatus), (24 bytes).
    Removing stm32f10x_rtc.o(i.RTC_GetITStatus), (44 bytes).
    Removing stm32f10x_rtc.o(i.RTC_ITConfig), (48 bytes).
    Removing stm32f10x_rtc.o(i.RTC_SetAlarm), (36 bytes).
    Removing stm32f10x_rtc.o(i.RTC_SetCounter), (36 bytes).
    Removing stm32f10x_rtc.o(i.RTC_SetPrescaler), (36 bytes).
    Removing stm32f10x_rtc.o(i.RTC_WaitForLastTask), (20 bytes).
    Removing stm32f10x_rtc.o(i.RTC_WaitForSynchro), (40 bytes).
    Removing stm32f10x_sdio.o(i.SDIO_CEATAITCmd), (16 bytes).
    Removing stm32f10x_sdio.o(i.SDIO_ClearFlag), (12 bytes).
    Removing stm32f10x_sdio.o(i.SDIO_ClearITPendingBit), (12 bytes).
    Removing stm32f10x_sdio.o(i.SDIO_ClockCmd), (12 bytes).
    Removing stm32f10x_sdio.o(i.SDIO_CmdStructInit), (14 bytes).
    Removing stm32f10x_sdio.o(i.SDIO_CommandCompletionCmd), (12 bytes).
    Removing stm32f10x_sdio.o(i.SDIO_DMACmd), (12 bytes).
    Removing stm32f10x_sdio.o(i.SDIO_DataConfig), (48 bytes).
    Removing stm32f10x_sdio.o(i.SDIO_DataStructInit), (20 bytes).
    Removing stm32f10x_sdio.o(i.SDIO_DeInit), (36 bytes).
    Removing stm32f10x_sdio.o(i.SDIO_GetCommandResponse), (12 bytes).
    Removing stm32f10x_sdio.o(i.SDIO_GetDataCounter), (12 bytes).
    Removing stm32f10x_sdio.o(i.SDIO_GetFIFOCount), (12 bytes).
    Removing stm32f10x_sdio.o(i.SDIO_GetFlagStatus), (24 bytes).
    Removing stm32f10x_sdio.o(i.SDIO_GetITStatus), (24 bytes).
    Removing stm32f10x_sdio.o(i.SDIO_GetPowerState), (16 bytes).
    Removing stm32f10x_sdio.o(i.SDIO_GetResponse), (16 bytes).
    Removing stm32f10x_sdio.o(i.SDIO_ITConfig), (32 bytes).
    Removing stm32f10x_sdio.o(i.SDIO_Init), (48 bytes).
    Removing stm32f10x_sdio.o(i.SDIO_ReadData), (12 bytes).
    Removing stm32f10x_sdio.o(i.SDIO_SendCEATACmd), (12 bytes).
    Removing stm32f10x_sdio.o(i.SDIO_SendCommand), (44 bytes).
    Removing stm32f10x_sdio.o(i.SDIO_SendSDIOSuspendCmd), (12 bytes).
    Removing stm32f10x_sdio.o(i.SDIO_SetPowerState), (28 bytes).
    Removing stm32f10x_sdio.o(i.SDIO_SetSDIOOperation), (12 bytes).
    Removing stm32f10x_sdio.o(i.SDIO_SetSDIOReadWaitMode), (12 bytes).
    Removing stm32f10x_sdio.o(i.SDIO_StartSDIOReadWait), (12 bytes).
    Removing stm32f10x_sdio.o(i.SDIO_StopSDIOReadWait), (12 bytes).
    Removing stm32f10x_sdio.o(i.SDIO_StructInit), (16 bytes).
    Removing stm32f10x_sdio.o(i.SDIO_WriteData), (12 bytes).
    Removing stm32f10x_spi.o(i.I2S_Cmd), (24 bytes).
    Removing stm32f10x_spi.o(i.I2S_Init), (300 bytes).
    Removing stm32f10x_spi.o(i.I2S_StructInit), (20 bytes).
    Removing stm32f10x_spi.o(i.SPI_BiDirectionalLineConfig), (28 bytes).
    Removing stm32f10x_spi.o(i.SPI_CalculateCRC), (24 bytes).
    Removing stm32f10x_spi.o(i.SPI_DataSizeConfig), (18 bytes).
    Removing stm32f10x_spi.o(i.SPI_GetCRC), (16 bytes).
    Removing stm32f10x_spi.o(i.SPI_GetCRCPolynomial), (6 bytes).
    Removing stm32f10x_spi.o(i.SPI_I2S_ClearFlag), (6 bytes).
    Removing stm32f10x_spi.o(i.SPI_I2S_ClearITPendingBit), (20 bytes).
    Removing stm32f10x_spi.o(i.SPI_I2S_DMACmd), (24 bytes).
    Removing stm32f10x_spi.o(i.SPI_I2S_DeInit), (88 bytes).
    Removing stm32f10x_spi.o(i.SPI_I2S_GetITStatus), (52 bytes).
    Removing stm32f10x_spi.o(i.SPI_I2S_ITConfig), (36 bytes).
    Removing stm32f10x_spi.o(i.SPI_NSSInternalSoftwareConfig), (30 bytes).
    Removing stm32f10x_spi.o(i.SPI_SSOutputCmd), (24 bytes).
    Removing stm32f10x_spi.o(i.SPI_StructInit), (24 bytes).
    Removing stm32f10x_spi.o(i.SPI_TransmitCRC), (10 bytes).
    Removing stm32f10x_tim.o(i.TI1_Config), (54 bytes).
    Removing stm32f10x_tim.o(i.TI2_Config), (68 bytes).
    Removing stm32f10x_tim.o(i.TI3_Config), (64 bytes).
    Removing stm32f10x_tim.o(i.TI4_Config), (68 bytes).
    Removing stm32f10x_tim.o(i.TIM_BDTRConfig), (32 bytes).
    Removing stm32f10x_tim.o(i.TIM_BDTRStructInit), (18 bytes).
    Removing stm32f10x_tim.o(i.TIM_CCPreloadControl), (24 bytes).
    Removing stm32f10x_tim.o(i.TIM_CCxCmd), (34 bytes).
    Removing stm32f10x_tim.o(i.TIM_CCxNCmd), (34 bytes).
    Removing stm32f10x_tim.o(i.TIM_ClearOC1Ref), (18 bytes).
    Removing stm32f10x_tim.o(i.TIM_ClearOC2Ref), (20 bytes).
    Removing stm32f10x_tim.o(i.TIM_ClearOC3Ref), (18 bytes).
    Removing stm32f10x_tim.o(i.TIM_ClearOC4Ref), (20 bytes).
    Removing stm32f10x_tim.o(i.TIM_CounterModeConfig), (18 bytes).
    Removing stm32f10x_tim.o(i.TIM_CtrlPWMOutputs), (30 bytes).
    Removing stm32f10x_tim.o(i.TIM_DMACmd), (24 bytes).
    Removing stm32f10x_tim.o(i.TIM_DMAConfig), (10 bytes).
    Removing stm32f10x_tim.o(i.TIM_DeInit), (224 bytes).
    Removing stm32f10x_tim.o(i.TIM_ETRClockMode1Config), (54 bytes).
    Removing stm32f10x_tim.o(i.TIM_ETRClockMode2Config), (32 bytes).
    Removing stm32f10x_tim.o(i.TIM_ETRConfig), (24 bytes).
    Removing stm32f10x_tim.o(i.TIM_EncoderInterfaceConfig), (62 bytes).
    Removing stm32f10x_tim.o(i.TIM_ForcedOC1Config), (18 bytes).
    Removing stm32f10x_tim.o(i.TIM_ForcedOC2Config), (22 bytes).
    Removing stm32f10x_tim.o(i.TIM_ForcedOC3Config), (18 bytes).
    Removing stm32f10x_tim.o(i.TIM_ForcedOC4Config), (22 bytes).
    Removing stm32f10x_tim.o(i.TIM_GenerateEvent), (4 bytes).
    Removing stm32f10x_tim.o(i.TIM_GetCapture1), (6 bytes).
    Removing stm32f10x_tim.o(i.TIM_GetCapture2), (6 bytes).
    Removing stm32f10x_tim.o(i.TIM_GetCapture3), (6 bytes).
    Removing stm32f10x_tim.o(i.TIM_GetCapture4), (8 bytes).
    Removing stm32f10x_tim.o(i.TIM_GetCounter), (6 bytes).
    Removing stm32f10x_tim.o(i.TIM_GetFlagStatus), (18 bytes).
    Removing stm32f10x_tim.o(i.TIM_GetPrescaler), (6 bytes).
    Removing stm32f10x_tim.o(i.TIM_ICInit), (110 bytes).
    Removing stm32f10x_tim.o(i.TIM_ICStructInit), (18 bytes).
    Removing stm32f10x_tim.o(i.TIM_ITRxExternalClockConfig), (24 bytes).
    Removing stm32f10x_tim.o(i.TIM_InternalClockConfig), (12 bytes).
    Removing stm32f10x_tim.o(i.TIM_OC1FastConfig), (18 bytes).
    Removing stm32f10x_tim.o(i.TIM_OC1Init), (120 bytes).
    Removing stm32f10x_tim.o(i.TIM_OC1NPolarityConfig), (18 bytes).
    Removing stm32f10x_tim.o(i.TIM_OC1PolarityConfig), (18 bytes).
    Removing stm32f10x_tim.o(i.TIM_OC1PreloadConfig), (18 bytes).
    Removing stm32f10x_tim.o(i.TIM_OC2FastConfig), (22 bytes).
    Removing stm32f10x_tim.o(i.TIM_OC2Init), (148 bytes).
    Removing stm32f10x_tim.o(i.TIM_OC2NPolarityConfig), (22 bytes).
    Removing stm32f10x_tim.o(i.TIM_OC2PolarityConfig), (22 bytes).
    Removing stm32f10x_tim.o(i.TIM_OC2PreloadConfig), (22 bytes).
    Removing stm32f10x_tim.o(i.TIM_OC3FastConfig), (18 bytes).
    Removing stm32f10x_tim.o(i.TIM_OC3Init), (144 bytes).
    Removing stm32f10x_tim.o(i.TIM_OC3NPolarityConfig), (22 bytes).
    Removing stm32f10x_tim.o(i.TIM_OC3PolarityConfig), (22 bytes).
    Removing stm32f10x_tim.o(i.TIM_OC3PreloadConfig), (18 bytes).
    Removing stm32f10x_tim.o(i.TIM_OC4FastConfig), (22 bytes).
    Removing stm32f10x_tim.o(i.TIM_OC4Init), (108 bytes).
    Removing stm32f10x_tim.o(i.TIM_OC4PolarityConfig), (22 bytes).
    Removing stm32f10x_tim.o(i.TIM_OC4PreloadConfig), (22 bytes).
    Removing stm32f10x_tim.o(i.TIM_OCStructInit), (20 bytes).
    Removing stm32f10x_tim.o(i.TIM_PWMIConfig), (124 bytes).
    Removing stm32f10x_tim.o(i.TIM_PrescalerConfig), (6 bytes).
    Removing stm32f10x_tim.o(i.TIM_SelectCCDMA), (24 bytes).
    Removing stm32f10x_tim.o(i.TIM_SelectCOM), (24 bytes).
    Removing stm32f10x_tim.o(i.TIM_SelectHallSensor), (24 bytes).
    Removing stm32f10x_tim.o(i.TIM_SelectInputTrigger), (18 bytes).
    Removing stm32f10x_tim.o(i.TIM_SelectMasterSlaveMode), (18 bytes).
    Removing stm32f10x_tim.o(i.TIM_SelectOCxM), (86 bytes).
    Removing stm32f10x_tim.o(i.TIM_SelectOnePulseMode), (18 bytes).
    Removing stm32f10x_tim.o(i.TIM_SelectOutputTrigger), (18 bytes).
    Removing stm32f10x_tim.o(i.TIM_SelectSlaveMode), (18 bytes).
    Removing stm32f10x_tim.o(i.TIM_SetAutoreload), (4 bytes).
    Removing stm32f10x_tim.o(i.TIM_SetClockDivision), (14 bytes).
    Removing stm32f10x_tim.o(i.TIM_SetCompare1), (4 bytes).
    Removing stm32f10x_tim.o(i.TIM_SetCompare2), (4 bytes).
    Removing stm32f10x_tim.o(i.TIM_SetCompare3), (4 bytes).
    Removing stm32f10x_tim.o(i.TIM_SetCompare4), (6 bytes).
    Removing stm32f10x_tim.o(i.TIM_SetIC1Prescaler), (18 bytes).
    Removing stm32f10x_tim.o(i.TIM_SetIC2Prescaler), (22 bytes).
    Removing stm32f10x_tim.o(i.TIM_SetIC3Prescaler), (18 bytes).
    Removing stm32f10x_tim.o(i.TIM_SetIC4Prescaler), (22 bytes).
    Removing stm32f10x_tim.o(i.TIM_TIxExternalClockConfig), (62 bytes).
    Removing stm32f10x_tim.o(i.TIM_TimeBaseStructInit), (18 bytes).
    Removing stm32f10x_tim.o(i.TIM_UpdateDisableConfig), (24 bytes).
    Removing stm32f10x_tim.o(i.TIM_UpdateRequestConfig), (24 bytes).
    Removing stm32f10x_usart.o(i.USART_ClearFlag), (18 bytes).
    Removing stm32f10x_usart.o(i.USART_ClearITPendingBit), (30 bytes).
    Removing stm32f10x_usart.o(i.USART_ClockInit), (34 bytes).
    Removing stm32f10x_usart.o(i.USART_ClockStructInit), (12 bytes).
    Removing stm32f10x_usart.o(i.USART_Cmd), (24 bytes).
    Removing stm32f10x_usart.o(i.USART_DMACmd), (24 bytes).
    Removing stm32f10x_usart.o(i.USART_DeInit), (156 bytes).
    Removing stm32f10x_usart.o(i.USART_GetFlagStatus), (26 bytes).
    Removing stm32f10x_usart.o(i.USART_GetITStatus), (84 bytes).
    Removing stm32f10x_usart.o(i.USART_HalfDuplexCmd), (24 bytes).
    Removing stm32f10x_usart.o(i.USART_ITConfig), (74 bytes).
    Removing stm32f10x_usart.o(i.USART_Init), (160 bytes).
    Removing stm32f10x_usart.o(i.USART_IrDACmd), (24 bytes).
    Removing stm32f10x_usart.o(i.USART_IrDAConfig), (18 bytes).
    Removing stm32f10x_usart.o(i.USART_LINBreakDetectLengthConfig), (18 bytes).
    Removing stm32f10x_usart.o(i.USART_LINCmd), (24 bytes).
    Removing stm32f10x_usart.o(i.USART_ReceiveData), (10 bytes).
    Removing stm32f10x_usart.o(i.USART_ReceiverWakeUpCmd), (24 bytes).
    Removing stm32f10x_usart.o(i.USART_SendBreak), (10 bytes).
    Removing stm32f10x_usart.o(i.USART_SendData), (8 bytes).
    Removing stm32f10x_usart.o(i.USART_SetAddress), (18 bytes).
    Removing stm32f10x_usart.o(i.USART_SetGuardTime), (16 bytes).
    Removing stm32f10x_usart.o(i.USART_SetPrescaler), (16 bytes).
    Removing stm32f10x_usart.o(i.USART_SmartCardCmd), (24 bytes).
    Removing stm32f10x_usart.o(i.USART_SmartCardNACKCmd), (24 bytes).
    Removing stm32f10x_usart.o(i.USART_StructInit), (24 bytes).
    Removing stm32f10x_usart.o(i.USART_WakeUpConfig), (18 bytes).
    Removing stm32f10x_wwdg.o(i.WWDG_ClearFlag), (12 bytes).
    Removing stm32f10x_wwdg.o(i.WWDG_DeInit), (22 bytes).
    Removing stm32f10x_wwdg.o(i.WWDG_Enable), (16 bytes).
    Removing stm32f10x_wwdg.o(i.WWDG_EnableIT), (12 bytes).
    Removing stm32f10x_wwdg.o(i.WWDG_GetFlagStatus), (12 bytes).
    Removing stm32f10x_wwdg.o(i.WWDG_SetCounter), (16 bytes).
    Removing stm32f10x_wwdg.o(i.WWDG_SetPrescaler), (32 bytes).
    Removing stm32f10x_wwdg.o(i.WWDG_SetWindowValue), (36 bytes).
    Removing stm32_eth.o(i.ETH_BackPressureActivationCmd), (36 bytes).
    Removing stm32_eth.o(i.ETH_DMAClearFlag), (12 bytes).
    Removing stm32_eth.o(i.ETH_DMAPTPRxDescChainInit), (116 bytes).
    Removing stm32_eth.o(i.ETH_DMAPTPTxDescChainInit), (112 bytes).
    Removing stm32_eth.o(i.ETH_DMARxDescEndOfRingCmd), (22 bytes).
    Removing stm32_eth.o(i.ETH_DMARxDescRingInit), (96 bytes).
    Removing stm32_eth.o(i.ETH_DMARxDescSecondAddressChainedCmd), (22 bytes).
    Removing stm32_eth.o(i.ETH_DMATxDescBufferSizeConfig), (14 bytes).
    Removing stm32_eth.o(i.ETH_DMATxDescCRCCmd), (22 bytes).
    Removing stm32_eth.o(i.ETH_DMATxDescChecksumInsertionConfig), (8 bytes).
    Removing stm32_eth.o(i.ETH_DMATxDescEndOfRingCmd), (22 bytes).
    Removing stm32_eth.o(i.ETH_DMATxDescFrameSegmentConfig), (8 bytes).
    Removing stm32_eth.o(i.ETH_DMATxDescRingInit), (80 bytes).
    Removing stm32_eth.o(i.ETH_DMATxDescSecondAddressChainedCmd), (22 bytes).
    Removing stm32_eth.o(i.ETH_DMATxDescShortFramePaddingCmd), (22 bytes).
    Removing stm32_eth.o(i.ETH_DMATxDescTimeStampCmd), (22 bytes).
    Removing stm32_eth.o(i.ETH_DMATxDescTransmitITConfig), (22 bytes).
    Removing stm32_eth.o(i.ETH_DropRxPkt), (88 bytes).
    Removing stm32_eth.o(i.ETH_EnablePTPTimeStampAddend), (24 bytes).
    Removing stm32_eth.o(i.ETH_EnablePTPTimeStampInterruptTrigger), (24 bytes).
    Removing stm32_eth.o(i.ETH_EnablePTPTimeStampUpdate), (24 bytes).
    Removing stm32_eth.o(i.ETH_GetBufferUnavailableMissedFrameCounter), (12 bytes).
    Removing stm32_eth.o(i.ETH_GetCurrentRxBufferAddress), (12 bytes).
    Removing stm32_eth.o(i.ETH_GetCurrentRxDescStartAddress), (12 bytes).
    Removing stm32_eth.o(i.ETH_GetCurrentTxBufferAddress), (12 bytes).
    Removing stm32_eth.o(i.ETH_GetCurrentTxDescStartAddress), (12 bytes).
    Removing stm32_eth.o(i.ETH_GetDMAFlagStatus), (24 bytes).
    Removing stm32_eth.o(i.ETH_GetDMAITStatus), (24 bytes).
    Removing stm32_eth.o(i.ETH_GetDMAOverflowStatus), (24 bytes).
    Removing stm32_eth.o(i.ETH_GetDMARxDescBufferSize), (20 bytes).
    Removing stm32_eth.o(i.ETH_GetDMARxDescFlagStatus), (18 bytes).
    Removing stm32_eth.o(i.ETH_GetDMATxDescCollisionCount), (10 bytes).
    Removing stm32_eth.o(i.ETH_GetDMATxDescFlagStatus), (18 bytes).
    Removing stm32_eth.o(i.ETH_GetFlowControlBusyStatus), (24 bytes).
    Removing stm32_eth.o(i.ETH_GetFlushTransmitFIFOStatus), (24 bytes).
    Removing stm32_eth.o(i.ETH_GetMACAddress), (40 bytes).
    Removing stm32_eth.o(i.ETH_GetMACFlagStatus), (24 bytes).
    Removing stm32_eth.o(i.ETH_GetMACITStatus), (24 bytes).
    Removing stm32_eth.o(i.ETH_GetMMCITStatus), (72 bytes).
    Removing stm32_eth.o(i.ETH_GetMMCRegister), (12 bytes).
    Removing stm32_eth.o(i.ETH_GetPMTFlagStatus), (24 bytes).
    Removing stm32_eth.o(i.ETH_GetPTPFlagStatus), (24 bytes).
    Removing stm32_eth.o(i.ETH_GetPTPRegister), (12 bytes).
    Removing stm32_eth.o(i.ETH_GetReceiveProcessState), (16 bytes).
    Removing stm32_eth.o(i.ETH_GetRxOverflowMissedFrameCounter), (16 bytes).
    Removing stm32_eth.o(i.ETH_GetTransmitProcessState), (16 bytes).
    Removing stm32_eth.o(i.ETH_GlobalUnicastWakeUpCmd), (36 bytes).
    Removing stm32_eth.o(i.ETH_HandlePTPRxPkt), (260 bytes).
    Removing stm32_eth.o(i.ETH_HandlePTPTxPkt), (320 bytes).
    Removing stm32_eth.o(i.ETH_HandleRxPkt), (204 bytes).
    Removing stm32_eth.o(i.ETH_HandleTxPkt), (184 bytes).
    Removing stm32_eth.o(i.ETH_InitializePTPTimeStamp), (24 bytes).
    Removing stm32_eth.o(i.ETH_InitiatePauseControlFrame), (20 bytes).
    Removing stm32_eth.o(i.ETH_MACAddressFilterConfig), (44 bytes).
    Removing stm32_eth.o(i.ETH_MACAddressMaskBytesFilterConfig), (36 bytes).
    Removing stm32_eth.o(i.ETH_MACAddressPerfectFilterCmd), (44 bytes).
    Removing stm32_eth.o(i.ETH_MACITConfig), (32 bytes).
    Removing stm32_eth.o(i.ETH_MMCCounterFreezeCmd), (44 bytes).
    Removing stm32_eth.o(i.ETH_MMCCounterRolloverCmd), (44 bytes).
    Removing stm32_eth.o(i.ETH_MMCCountersReset), (24 bytes).
    Removing stm32_eth.o(i.ETH_MMCITConfig), (92 bytes).
    Removing stm32_eth.o(i.ETH_MMCResetOnReadCmd), (44 bytes).
    Removing stm32_eth.o(i.ETH_MagicPacketDetectionCmd), (36 bytes).
    Removing stm32_eth.o(i.ETH_PHYLoopBackCmd), (52 bytes).
    Removing stm32_eth.o(i.ETH_PTPTimeStampCmd), (44 bytes).
    Removing stm32_eth.o(i.ETH_PTPUpdateMethodConfig), (44 bytes).
    Removing stm32_eth.o(i.ETH_PowerDownCmd), (36 bytes).
    Removing stm32_eth.o(i.ETH_ResetWakeUpFrameFilterRegisterPointer), (20 bytes).
    Removing stm32_eth.o(i.ETH_ResumeDMAReception), (12 bytes).
    Removing stm32_eth.o(i.ETH_ResumeDMATransmission), (12 bytes).
    Removing stm32_eth.o(i.ETH_SetDMARxDescOwnBit), (10 bytes).
    Removing stm32_eth.o(i.ETH_SetDMATxDescOwnBit), (10 bytes).
    Removing stm32_eth.o(i.ETH_SetPTPSubSecondIncrement), (12 bytes).
    Removing stm32_eth.o(i.ETH_SetPTPTargetTime), (20 bytes).
    Removing stm32_eth.o(i.ETH_SetPTPTimeStampAddend), (12 bytes).
    Removing stm32_eth.o(i.ETH_SetPTPTimeStampUpdate), (28 bytes).
    Removing stm32_eth.o(i.ETH_SetWakeUpFrameFilterRegister), (28 bytes).
    Removing stm32_eth.o(i.ETH_WakeUpFrameDetectionCmd), (36 bytes).
    Removing init.o(i.lwip_init), (28 bytes).
    Removing mem.o(i.mem_calloc), (34 bytes).
    Removing netif.o(i.netif_find), (68 bytes).
    Removing netif.o(i.netif_init), (2 bytes).
    Removing netif.o(i.netif_remove), (100 bytes).
    Removing netif.o(i.netif_set_down), (42 bytes).
    Removing netif.o(i.netif_set_link_down), (24 bytes).
    Removing netif.o(i.netif_set_link_up), (54 bytes).
    Removing pbuf.o(i.pbuf_coalesce), (66 bytes).
    Removing pbuf.o(i.pbuf_dechain), (84 bytes).
    Removing pbuf.o(i.pbuf_get_at), (46 bytes).
    Removing pbuf.o(i.pbuf_memcmp), (96 bytes).
    Removing pbuf.o(i.pbuf_memfind), (76 bytes).
    Removing pbuf.o(i.pbuf_strstr), (60 bytes).
    Removing pbuf.o(i.pbuf_take), (138 bytes).
    Removing raw.o(i.raw_bind), (16 bytes).
    Removing raw.o(i.raw_connect), (16 bytes).
    Removing raw.o(i.raw_new), (48 bytes).
    Removing raw.o(i.raw_recv), (6 bytes).
    Removing raw.o(i.raw_remove), (64 bytes).
    Removing raw.o(i.raw_send), (18 bytes).
    Removing raw.o(i.raw_sendto), (160 bytes).
    Removing stats.o(i.stats_init), (2 bytes).
    Removing tcp.o(i.Listenpenddec), (2 bytes).
    Removing tcp.o(i.tcp_debug_state_str), (16 bytes).
    Removing tcp.o(i.tcp_init), (2 bytes).
    Removing tcp.o(i.tcp_shutdown), (98 bytes).
    Removing udp.o(i.udp_connect), (100 bytes).
    Removing udp.o(i.udp_init), (2 bytes).
    Removing udp.o(i.udp_send), (20 bytes).
    Removing inet_chksum.o(i.inet_chksum_pseudo_partial), (196 bytes).
    Removing ip_addr.o(i.ip4_addr_netmask_valid), (52 bytes).
    Removing ip_addr.o(i.ipaddr_addr), (24 bytes).
    Removing ip_addr.o(i.ipaddr_aton), (352 bytes).
    Removing ip_addr.o(i.ipaddr_ntoa), (20 bytes).
    Removing ip_addr.o(i.ipaddr_ntoa_r), (168 bytes).
    Removing ip_addr.o(.bss), (16 bytes).
    Removing ip_frag.o(i.ip_reass_tmr), (52 bytes).
    Removing etharp.o(i.etharp_cleanup_netif), (56 bytes).
    Removing etharp.o(i.etharp_find_addr), (96 bytes).
    Removing core_cm3.o(.emb_text), (32 bytes).
    Removing system_stm32f10x.o(.constdata), (20 bytes).
    Removing startup_stm32f10x_cl.o(HEAP), (512 bytes).
    Removing extract.o(i.ex_setPartitionField), (2 bytes).
    Removing extract.o(i.ex_setb16), (12 bytes).
    Removing extract.o(i.ex_setb32), (24 bytes).
    Removing fat.o(i.fat_countFreeClusters), (38 bytes).
    Removing fat.o(i.fat_unlinkClusterChain), (74 bytes).
    Removing fs.o(i.fs_getFsInfo), (136 bytes).
    Removing fs.o(i.fs_sectorToCluster), (74 bytes).
    Removing fs.o(i.fs_setFsInfo), (124 bytes).
    Removing ioman.o(i.ioman_decRefCnt), (42 bytes).
    Removing ioman.o(i.ioman_flushAll), (70 bytes).
    Removing ioman.o(i.ioman_printStatus), (30 bytes).
    Removing ioman.o(i.ioman_resetRefCnt), (24 bytes).
    Removing ioman.o(i.ioman_resetUseCnt), (24 bytes).
    Removing ls.o(i.ls_fileEntryToDirListEntry), (62 bytes).
    Removing ls.o(i.ls_getDirEntry), (36 bytes).
    Removing ls.o(i.ls_getNext), (48 bytes).
    Removing ls.o(i.ls_getRealDirEntry), (138 bytes).
    Removing ls.o(i.ls_getRootAreaEntry), (114 bytes).
    Removing ls.o(i.ls_isValidFileEntry), (40 bytes).
    Removing mkfs.o(i.mkfs_makevfat), (432 bytes).
    Removing partition.o(i.part_readBuf), (38 bytes).
    Removing partition.o(i.part_writeBuf), (38 bytes).
    Removing plibc.o(i.memSet), (16 bytes).
    Removing time.o(i.fs_makeDate), (4 bytes).
    Removing time.o(i.fs_makeTime), (4 bytes).
    Removing ui.o(i.listFiles), (278 bytes).
    Removing ui.o(i.mkdir), (400 bytes).
    Removing ui.o(i.rmfile), (130 bytes).
    Removing sd.o(i.sdhc_readSector), (52 bytes).
    Removing sd.o(i.sdhc_writeSector), (4 bytes).
    Removing sd_stm32.o(i.if_setPos), (6 bytes).
    Removing httpd.o(.constdata), (40 bytes).
    Removing httpd.o(.conststring), (59 bytes).

596 unused section(s) (total 27453 bytes) removed from the image.

==============================================================================

Image Symbol Table

    Local Symbols

    Symbol Name                              Value     Ov Type        Size  Object(Section)

    ../../../cmprslib/zerorunl2.c            0x00000000   Number         0  __dczerorl2.o ABSOLUTE
    ../../microlib/fpepilogue.c              0x00000000   Number         0  depilogue.o ABSOLUTE
    ../../microlib/fpfix.c                   0x00000000   Number         0  dfixi.o ABSOLUTE
    ../../microlib/fpflt.c                   0x00000000   Number         0  dflti.o ABSOLUTE
    ../../microlib/fpmul.c                   0x00000000   Number         0  dmul.o ABSOLUTE
    ../../microlib/init/entry.s              0x00000000   Number         0  entry5.o ABSOLUTE
    ../../microlib/init/entry.s              0x00000000   Number         0  entry7.o ABSOLUTE
    ../../microlib/init/entry.s              0x00000000   Number         0  entry2.o ABSOLUTE
    ../../microlib/init/entry.s              0x00000000   Number         0  entry.o ABSOLUTE
    ../../microlib/longlong.c                0x00000000   Number         0  llushr.o ABSOLUTE
    ../../microlib/longlong.c                0x00000000   Number         0  llshl.o ABSOLUTE
    ../../microlib/string/memcmp.c           0x00000000   Number         0  memcmp.o ABSOLUTE
    ../../microlib/string/memcpy.c           0x00000000   Number         0  memcpyb.o ABSOLUTE
    ../../microlib/string/memcpy.c           0x00000000   Number         0  memcpya.o ABSOLUTE
    ../../microlib/string/memset.c           0x00000000   Number         0  memseta.o ABSOLUTE
    ../../microlib/string/strchr.c           0x00000000   Number         0  strchr.o ABSOLUTE
    ../../microlib/string/strcmp.c           0x00000000   Number         0  strcmp.o ABSOLUTE
    ../../microlib/string/strcpy.c           0x00000000   Number         0  strcpy.o ABSOLUTE
    ../../microlib/string/strlen.c           0x00000000   Number         0  strlen.o ABSOLUTE
    ../../microlib/string/strncmp.c          0x00000000   Number         0  strncmp.o ABSOLUTE
    ../../microlib/string/strstr.c           0x00000000   Number         0  strstr.o ABSOLUTE
    ../../microlib/stubs.s                   0x00000000   Number         0  iusefp.o ABSOLUTE
    ..\GNU\lwip-1.4.1\archport\port\ethernetif.c 0x00000000   Number         0  ethernetif.o ABSOLUTE
    ..\GNU\lwip-1.4.1\src\api\api_lib.c  0x00000000   Number         0  api_lib.o ABSOLUTE
    ..\GNU\lwip-1.4.1\src\api\err.c      0x00000000   Number         0  err.o ABSOLUTE
    ..\GNU\lwip-1.4.1\src\api\netbuf.c   0x00000000   Number         0  netbuf.o ABSOLUTE
    ..\GNU\lwip-1.4.1\src\api\netdb.c    0x00000000   Number         0  netdb.o ABSOLUTE
    ..\GNU\lwip-1.4.1\src\api\netifapi.c 0x00000000   Number         0  netifapi.o ABSOLUTE
    ..\GNU\lwip-1.4.1\src\api\tcpip.c    0x00000000   Number         0  tcpip.o ABSOLUTE
    ..\GNU\lwip-1.4.1\src\core\def.c     0x00000000   Number         0  def.o ABSOLUTE
    ..\GNU\lwip-1.4.1\src\core\dhcp.c    0x00000000   Number         0  dhcp.o ABSOLUTE
    ..\GNU\lwip-1.4.1\src\core\dns.c     0x00000000   Number         0  dns.o ABSOLUTE
    ..\GNU\lwip-1.4.1\src\core\init.c    0x00000000   Number         0  init.o ABSOLUTE
    ..\GNU\lwip-1.4.1\src\core\ipv4\autoip.c 0x00000000   Number         0  autoip.o ABSOLUTE
    ..\GNU\lwip-1.4.1\src\core\ipv4\icmp.c 0x00000000   Number         0  icmp.o ABSOLUTE
    ..\GNU\lwip-1.4.1\src\core\ipv4\igmp.c 0x00000000   Number         0  igmp.o ABSOLUTE
    ..\GNU\lwip-1.4.1\src\core\ipv4\inet.c 0x00000000   Number         0  inet.o ABSOLUTE
    ..\GNU\lwip-1.4.1\src\core\ipv4\inet_chksum.c 0x00000000   Number         0  inet_chksum.o ABSOLUTE
    ..\GNU\lwip-1.4.1\src\core\ipv4\ip.c 0x00000000   Number         0  ip.o ABSOLUTE
    ..\GNU\lwip-1.4.1\src\core\ipv4\ip_addr.c 0x00000000   Number         0  ip_addr.o ABSOLUTE
    ..\GNU\lwip-1.4.1\src\core\ipv4\ip_frag.c 0x00000000   Number         0  ip_frag.o ABSOLUTE
    ..\GNU\lwip-1.4.1\src\core\mem.c     0x00000000   Number         0  mem.o ABSOLUTE
    ..\GNU\lwip-1.4.1\src\core\memp.c    0x00000000   Number         0  memp.o ABSOLUTE
    ..\GNU\lwip-1.4.1\src\core\netif.c   0x00000000   Number         0  netif.o ABSOLUTE
    ..\GNU\lwip-1.4.1\src\core\pbuf.c    0x00000000   Number         0  pbuf.o ABSOLUTE
    ..\GNU\lwip-1.4.1\src\core\raw.c     0x00000000   Number         0  raw.o ABSOLUTE
    ..\GNU\lwip-1.4.1\src\core\stats.c   0x00000000   Number         0  stats.o ABSOLUTE
    ..\GNU\lwip-1.4.1\src\core\sys.c     0x00000000   Number         0  sys.o ABSOLUTE
    ..\GNU\lwip-1.4.1\src\core\tcp.c     0x00000000   Number         0  tcp.o ABSOLUTE
    ..\GNU\lwip-1.4.1\src\core\tcp_in.c  0x00000000   Number         0  tcp_in.o ABSOLUTE
    ..\GNU\lwip-1.4.1\src\core\tcp_out.c 0x00000000   Number         0  tcp_out.o ABSOLUTE
    ..\GNU\lwip-1.4.1\src\core\timers.c  0x00000000   Number         0  timers.o ABSOLUTE
    ..\GNU\lwip-1.4.1\src\core\udp.c     0x00000000   Number         0  udp.o ABSOLUTE
    ..\GNU\lwip-1.4.1\src\netif\etharp.c 0x00000000   Number         0  etharp.o ABSOLUTE
    ..\Libraries\CMSIS\Core\CM3\core_cm3.c   0x00000000   Number         0  core_cm3.o ABSOLUTE
    ..\Libraries\CMSIS\Core\CM3\startup\arm\startup_stm32f10x_cl.s 0x00000000   Number         0  startup_stm32f10x_cl.o ABSOLUTE
    ..\Libraries\CMSIS\Core\CM3\system_stm32f10x.c 0x00000000   Number         0  system_stm32f10x.o ABSOLUTE
    ..\Libraries\STM32F10x_StdPeriph_Driver\src\misc.c 0x00000000   Number         0  misc.o ABSOLUTE
    ..\Libraries\STM32F10x_StdPeriph_Driver\src\stm32f10x_adc.c 0x00000000   Number         0  stm32f10x_adc.o ABSOLUTE
    ..\Libraries\STM32F10x_StdPeriph_Driver\src\stm32f10x_bkp.c 0x00000000   Number         0  stm32f10x_bkp.o ABSOLUTE
    ..\Libraries\STM32F10x_StdPeriph_Driver\src\stm32f10x_can.c 0x00000000   Number         0  stm32f10x_can.o ABSOLUTE
    ..\Libraries\STM32F10x_StdPeriph_Driver\src\stm32f10x_crc.c 0x00000000   Number         0  stm32f10x_crc.o ABSOLUTE
    ..\Libraries\STM32F10x_StdPeriph_Driver\src\stm32f10x_dac.c 0x00000000   Number         0  stm32f10x_dac.o ABSOLUTE
    ..\Libraries\STM32F10x_StdPeriph_Driver\src\stm32f10x_dbgmcu.c 0x00000000   Number         0  stm32f10x_dbgmcu.o ABSOLUTE
    ..\Libraries\STM32F10x_StdPeriph_Driver\src\stm32f10x_dma.c 0x00000000   Number         0  stm32f10x_dma.o ABSOLUTE
    ..\Libraries\STM32F10x_StdPeriph_Driver\src\stm32f10x_exti.c 0x00000000   Number         0  stm32f10x_exti.o ABSOLUTE
    ..\Libraries\STM32F10x_StdPeriph_Driver\src\stm32f10x_flash.c 0x00000000   Number         0  stm32f10x_flash.o ABSOLUTE
    ..\Libraries\STM32F10x_StdPeriph_Driver\src\stm32f10x_fsmc.c 0x00000000   Number         0  stm32f10x_fsmc.o ABSOLUTE
    ..\Libraries\STM32F10x_StdPeriph_Driver\src\stm32f10x_gpio.c 0x00000000   Number         0  stm32f10x_gpio.o ABSOLUTE
    ..\Libraries\STM32F10x_StdPeriph_Driver\src\stm32f10x_i2c.c 0x00000000   Number         0  stm32f10x_i2c.o ABSOLUTE
    ..\Libraries\STM32F10x_StdPeriph_Driver\src\stm32f10x_iwdg.c 0x00000000   Number         0  stm32f10x_iwdg.o ABSOLUTE
    ..\Libraries\STM32F10x_StdPeriph_Driver\src\stm32f10x_pwr.c 0x00000000   Number         0  stm32f10x_pwr.o ABSOLUTE
    ..\Libraries\STM32F10x_StdPeriph_Driver\src\stm32f10x_rcc.c 0x00000000   Number         0  stm32f10x_rcc.o ABSOLUTE
    ..\Libraries\STM32F10x_StdPeriph_Driver\src\stm32f10x_rtc.c 0x00000000   Number         0  stm32f10x_rtc.o ABSOLUTE
    ..\Libraries\STM32F10x_StdPeriph_Driver\src\stm32f10x_sdio.c 0x00000000   Number         0  stm32f10x_sdio.o ABSOLUTE
    ..\Libraries\STM32F10x_StdPeriph_Driver\src\stm32f10x_spi.c 0x00000000   Number         0  stm32f10x_spi.o ABSOLUTE
    ..\Libraries\STM32F10x_StdPeriph_Driver\src\stm32f10x_tim.c 0x00000000   Number         0  stm32f10x_tim.o ABSOLUTE
    ..\Libraries\STM32F10x_StdPeriph_Driver\src\stm32f10x_usart.c 0x00000000   Number         0  stm32f10x_usart.o ABSOLUTE
    ..\Libraries\STM32F10x_StdPeriph_Driver\src\stm32f10x_wwdg.c 0x00000000   Number         0  stm32f10x_wwdg.o ABSOLUTE
    ..\Libraries\STM32_ETH_Driver\src\stm32_eth.c 0x00000000   Number         0  stm32_eth.o ABSOLUTE
    ..\\Libraries\\CMSIS\\Core\\CM3\\core_cm3.c 0x00000000   Number         0  core_cm3.o ABSOLUTE
    ..\\myself\\src\\stm32f10x_it.c          0x00000000   Number         0  stm32f10x_it.o ABSOLUTE
    ..\efsl\source\dir.c                     0x00000000   Number         0  dir.o ABSOLUTE
    ..\efsl\source\disc.c                    0x00000000   Number         0  disc.o ABSOLUTE
    ..\efsl\source\efs.c                     0x00000000   Number         0  efs.o ABSOLUTE
    ..\efsl\source\extract.c                 0x00000000   Number         0  extract.o ABSOLUTE
    ..\efsl\source\fat.c                     0x00000000   Number         0  fat.o ABSOLUTE
    ..\efsl\source\file.c                    0x00000000   Number         0  file.o ABSOLUTE
    ..\efsl\source\fs.c                      0x00000000   Number         0  fs.o ABSOLUTE
    ..\efsl\source\interface\sd.c            0x00000000   Number         0  sd.o ABSOLUTE
    ..\efsl\source\interface\sd_stm32.c      0x00000000   Number         0  sd_stm32.o ABSOLUTE
    ..\efsl\source\ioman.c                   0x00000000   Number         0  ioman.o ABSOLUTE
    ..\efsl\source\ls.c                      0x00000000   Number         0  ls.o ABSOLUTE
    ..\efsl\source\mkfs.c                    0x00000000   Number         0  mkfs.o ABSOLUTE
    ..\efsl\source\partition.c               0x00000000   Number         0  partition.o ABSOLUTE
    ..\efsl\source\plibc.c                   0x00000000   Number         0  plibc.o ABSOLUTE
    ..\efsl\source\time.c                    0x00000000   Number         0  time.o ABSOLUTE
    ..\efsl\source\ui.c                      0x00000000   Number         0  ui.o ABSOLUTE
    ..\httpserver_raw\src\fs_lwip.c          0x00000000   Number         0  fs_lwip.o ABSOLUTE
    ..\httpserver_raw\src\fsdata.c           0x00000000   Number         0  fsdata.o ABSOLUTE
    ..\httpserver_raw\src\httpd.c            0x00000000   Number         0  httpd.o ABSOLUTE
    ..\myself\src\DS18B20SROM.c              0x00000000   Number         0  ds18b20srom.o ABSOLUTE
    ..\myself\src\client_tcpudp.c            0x00000000   Number         0  client_tcpudp.o ABSOLUTE
    ..\myself\src\ds18b20sech.c              0x00000000   Number         0  ds18b20sech.o ABSOLUTE
    ..\myself\src\filesystem.c               0x00000000   Number         0  filesystem.o ABSOLUTE
    ..\myself\src\main.c                     0x00000000   Number         0  main.o ABSOLUTE
    ..\myself\src\netconf.c                  0x00000000   Number         0  netconf.o ABSOLUTE
    ..\myself\src\stm32f107.c                0x00000000   Number         0  stm32f107.o ABSOLUTE
    ..\myself\src\stm32f10x_it.c             0x00000000   Number         0  stm32f10x_it.o ABSOLUTE
    ..\netbios\netbios.c                     0x00000000   Number         0  netbios.o ABSOLUTE
    ..\tftp\tftpserver.c                     0x00000000   Number         0  tftpserver.o ABSOLUTE
    ..\tftp\tftputils.c                      0x00000000   Number         0  tftputils.o ABSOLUTE
    dc.s                                     0x00000000   Number         0  dc.o ABSOLUTE
    handlers.s                               0x00000000   Number         0  handlers.o ABSOLUTE
    init.s                                   0x00000000   Number         0  init.o ABSOLUTE
    RESET                                    0x08000000   Section      336  startup_stm32f10x_cl.o(RESET)
    .ARM.Collect$$$$00000000                 0x08000150   Section        0  entry.o(.ARM.Collect$$$$00000000)
    .ARM.Collect$$$$00000001                 0x08000150   Section        4  entry2.o(.ARM.Collect$$$$00000001)
    .ARM.Collect$$$$00000004                 0x08000154   Section        4  entry5.o(.ARM.Collect$$$$00000004)
    .ARM.Collect$$$$00000007                 0x08000158   Section        8  entry7.o(.ARM.Collect$$$$00000007)
    .ARM.Collect$$$$00002712                 0x08000160   Section        4  entry2.o(.ARM.Collect$$$$00002712)
    __lit__00000000                          0x08000160   Data           4  entry2.o(.ARM.Collect$$$$00002712)
    .emb_text                                0x08000164   Section        2  stm32f10x_it.o(.emb_text)
    .text                                    0x08000168   Section       28  startup_stm32f10x_cl.o(.text)
    .text                                    0x08000184   Section        0  memcpya.o(.text)
    .text                                    0x080001a8   Section        0  memseta.o(.text)
    .text                                    0x080001ce   Section        0  strstr.o(.text)
    .text                                    0x080001fa   Section        0  strchr.o(.text)
    .text                                    0x0800020c   Section        0  strlen.o(.text)
    .text                                    0x0800021c   Section        0  strcmp.o(.text)
    .text                                    0x08000238   Section        0  memcmp.o(.text)
    .text                                    0x08000252   Section        0  strcpy.o(.text)
    .text                                    0x08000264   Section        0  strncmp.o(.text)
    .text                                    0x08000282   Section        0  dmul.o(.text)
    .text                                    0x08000364   Section        0  dflti.o(.text)
    .text                                    0x08000386   Section        0  dfixi.o(.text)
    .text                                    0x080003c4   Section        0  llushr.o(.text)
    .text                                    0x080003e4   Section        0  depilogue.o(.text)
    .text                                    0x080003e4   Section        0  iusefp.o(.text)
    .text                                    0x080004a8   Section       36  init.o(.text)
    .text                                    0x080004cc   Section        0  llshl.o(.text)
    .text                                    0x080004ea   Section        0  __dczerorl2.o(.text)
    i.BusFault_Handler                       0x08000546   Section        0  stm32f10x_it.o(i.BusFault_Handler)
    i.DS1820main                             0x0800054c   Section        0  ds18b20srom.o(i.DS1820main)
    i.DS18B20_ReadBit                        0x08000830   Section        0  ds18b20srom.o(i.DS18B20_ReadBit)
    i.DS18B20_ReadData                       0x08000870   Section        0  ds18b20srom.o(i.DS18B20_ReadData)
    i.DS18B20_ReadDesignateTemper            0x08000894   Section        0  ds18b20srom.o(i.DS18B20_ReadDesignateTemper)
    i.DS18B20_Reset                          0x08000924   Section        0  ds18b20srom.o(i.DS18B20_Reset)
    i.DS18B20_WriteBit                       0x08000988   Section        0  ds18b20srom.o(i.DS18B20_WriteBit)
    i.DS18B20_WriteData                      0x080009b8   Section        0  ds18b20srom.o(i.DS18B20_WriteData)
    i.DebugMon_Handler                       0x080009d6   Section        0  stm32f10x_it.o(i.DebugMon_Handler)
    i.Delay_init                             0x080009d8   Section        0  ds18b20srom.o(i.Delay_init)
    i.Delay_us                               0x08000a0c   Section        0  ds18b20srom.o(i.Delay_us)
    i.ETH_DMAClearITPendingBit               0x08000a40   Section        0  stm32_eth.o(i.ETH_DMAClearITPendingBit)
    i.ETH_DMAITConfig                        0x08000a4c   Section        0  stm32_eth.o(i.ETH_DMAITConfig)
    i.ETH_DMAReceptionCmd                    0x08000a6c   Section        0  stm32_eth.o(i.ETH_DMAReceptionCmd)
    i.ETH_DMARxDescChainInit                 0x08000a90   Section        0  stm32_eth.o(i.ETH_DMARxDescChainInit)
    i.ETH_DMARxDescReceiveITConfig           0x08000ae4   Section        0  stm32_eth.o(i.ETH_DMARxDescReceiveITConfig)
    i.ETH_DMATransmissionCmd                 0x08000afc   Section        0  stm32_eth.o(i.ETH_DMATransmissionCmd)
    i.ETH_DMATxDescChainInit                 0x08000b20   Section        0  stm32_eth.o(i.ETH_DMATxDescChainInit)
    i.ETH_DeInit                             0x08000b70   Section        0  stm32_eth.o(i.ETH_DeInit)
    i.ETH_Delay                              0x08000b86   Section        0  stm32_eth.o(i.ETH_Delay)
    ETH_Delay                                0x08000b87   Thumb Code    14  stm32_eth.o(i.ETH_Delay)
    i.ETH_FlushTransmitFIFO                  0x08000b94   Section        0  stm32_eth.o(i.ETH_FlushTransmitFIFO)
    i.ETH_GetCurrentTxBuffer                 0x08000ba8   Section        0  ethernetif.o(i.ETH_GetCurrentTxBuffer)
    i.ETH_GetDMARxDescFrameLength            0x08000bb4   Section        0  stm32_eth.o(i.ETH_GetDMARxDescFrameLength)
    i.ETH_GetRxPktSize                       0x08000bc0   Section        0  stm32_eth.o(i.ETH_GetRxPktSize)
    i.ETH_GetSoftwareResetStatus             0x08000c08   Section        0  stm32_eth.o(i.ETH_GetSoftwareResetStatus)
    i.ETH_IRQHandler                         0x08000c20   Section        0  stm32f10x_it.o(i.ETH_IRQHandler)
    i.ETH_Init                               0x08000c40   Section        0  stm32_eth.o(i.ETH_Init)
    i.ETH_MACAddressConfig                   0x08000e8c   Section        0  stm32_eth.o(i.ETH_MACAddressConfig)
    i.ETH_MACReceptionCmd                    0x08000ec0   Section        0  stm32_eth.o(i.ETH_MACReceptionCmd)
    i.ETH_MACTransmissionCmd                 0x08000ee4   Section        0  stm32_eth.o(i.ETH_MACTransmissionCmd)
    i.ETH_ReadPHYRegister                    0x08000f08   Section        0  stm32_eth.o(i.ETH_ReadPHYRegister)
    i.ETH_Recive_Poll                        0x08000f68   Section        0  ethernetif.o(i.ETH_Recive_Poll)
    i.ETH_RxPkt_ChainMode                    0x08000f84   Section        0  ethernetif.o(i.ETH_RxPkt_ChainMode)
    i.ETH_SoftwareReset                      0x08001020   Section        0  stm32_eth.o(i.ETH_SoftwareReset)
    i.ETH_Start                              0x08001034   Section        0  stm32_eth.o(i.ETH_Start)
    i.ETH_StructInit                         0x08001054   Section        0  stm32_eth.o(i.ETH_StructInit)
    i.ETH_TxPkt_ChainMode                    0x080010f8   Section        0  ethernetif.o(i.ETH_TxPkt_ChainMode)
    i.ETH_WritePHYRegister                   0x080011ac   Section        0  stm32_eth.o(i.ETH_WritePHYRegister)
    i.Ethernet_Configuration                 0x0800120c   Section        0  stm32f107.o(i.Ethernet_Configuration)
    i.FS_Write                               0x08001294   Section        0  filesystem.o(i.FS_Write)
    i.FS_Writehtml                           0x0800130c   Section        0  filesystem.o(i.FS_Writehtml)
    i.FileSysteWrite                         0x08001438   Section        0  filesystem.o(i.FileSysteWrite)
    i.FileSystemClose                        0x08001494   Section        0  filesystem.o(i.FileSystemClose)
    i.FileSystemInit                         0x080014a8   Section        0  filesystem.o(i.FileSystemInit)
    i.FileSystemThread                       0x08001504   Section        0  filesystem.o(i.FileSystemThread)
    i.FindFileString                         0x0800150c   Section        0  filesystem.o(i.FindFileString)
    i.GPIO_Configuration                     0x0800155c   Section        0  stm32f107.o(i.GPIO_Configuration)
    i.GPIO_ETH_MediaInterfaceConfig          0x08001668   Section        0  stm32f10x_gpio.o(i.GPIO_ETH_MediaInterfaceConfig)
    i.GPIO_Init                              0x08001674   Section        0  stm32f10x_gpio.o(i.GPIO_Init)
    i.GPIO_PinRemapConfig                    0x08001788   Section        0  stm32f10x_gpio.o(i.GPIO_PinRemapConfig)
    i.GPIO_ReadInputDataBit                  0x080017f8   Section        0  stm32f10x_gpio.o(i.GPIO_ReadInputDataBit)
    i.GPIO_ResetBits                         0x0800180a   Section        0  stm32f10x_gpio.o(i.GPIO_ResetBits)
    i.GPIO_SetBits                           0x0800180e   Section        0  stm32f10x_gpio.o(i.GPIO_SetBits)
    i.GetRomAddr                             0x08001814   Section        0  ds18b20sech.o(i.GetRomAddr)
    i.HardFault_Handler                      0x0800181c   Section        0  stm32f10x_it.o(i.HardFault_Handler)
    i.Http_File_System_Init                  0x08001824   Section        0  httpd.o(i.Http_File_System_Init)
    i.InitTIM                                0x08001854   Section        0  main.o(i.InitTIM)
    i.Init_DS18B20_IO                        0x080018f0   Section        0  ds18b20srom.o(i.Init_DS18B20_IO)
    i.LwIP_Init                              0x0800191c   Section        0  netconf.o(i.LwIP_Init)
    i.LwIP_Periodic_Handle                   0x0800197c   Section        0  netconf.o(i.LwIP_Periodic_Handle)
    i.LwIP_Pkt_Handle                        0x080019bc   Section        0  netconf.o(i.LwIP_Pkt_Handle)
    i.MemManage_Handler                      0x080019cc   Section        0  stm32f10x_it.o(i.MemManage_Handler)
    i.NMI_Handler                            0x080019d0   Section        0  stm32f10x_it.o(i.NMI_Handler)
    i.NVIC_Configuration                     0x080019d2   Section        0  stm32f107.o(i.NVIC_Configuration)
    i.NVIC_Init                              0x08001a08   Section        0  misc.o(i.NVIC_Init)
    i.NVIC_PriorityGroupConfig               0x08001a8c   Section        0  misc.o(i.NVIC_PriorityGroupConfig)
    i.NVIC_SetPriority                       0x08001aa0   Section        0  stm32f107.o(i.NVIC_SetPriority)
    NVIC_SetPriority                         0x08001aa1   Thumb Code    32  stm32f107.o(i.NVIC_SetPriority)
    i.NVIC_SetVectorTable                    0x08001ac8   Section        0  misc.o(i.NVIC_SetVectorTable)
    i.OWFirst                                0x08001adc   Section        0  ds18b20sech.o(i.OWFirst)
    i.OWReadBit                              0x08001b00   Section        0  ds18b20sech.o(i.OWReadBit)
    i.OWReset                                0x08001b08   Section        0  ds18b20sech.o(i.OWReset)
    i.OWSearch                               0x08001b10   Section        0  ds18b20sech.o(i.OWSearch)
    i.OWWriteBit                             0x08001c44   Section        0  ds18b20sech.o(i.OWWriteBit)
    i.OWWriteByte                            0x08001c50   Section        0  ds18b20sech.o(i.OWWriteByte)
    i.PendSV_Handler                         0x08001c5c   Section        0  stm32f10x_it.o(i.PendSV_Handler)
    i.RCC_AHBPeriphClockCmd                  0x08001c60   Section        0  stm32f10x_rcc.o(i.RCC_AHBPeriphClockCmd)
    i.RCC_AHBPeriphResetCmd                  0x08001c80   Section        0  stm32f10x_rcc.o(i.RCC_AHBPeriphResetCmd)
    i.RCC_APB1PeriphClockCmd                 0x08001ca0   Section        0  stm32f10x_rcc.o(i.RCC_APB1PeriphClockCmd)
    i.RCC_APB2PeriphClockCmd                 0x08001cc0   Section        0  stm32f10x_rcc.o(i.RCC_APB2PeriphClockCmd)
    i.RCC_GetClocksFreq                      0x08001ce0   Section        0  stm32f10x_rcc.o(i.RCC_GetClocksFreq)
    i.RCC_MCOConfig                          0x08001e70   Section        0  stm32f10x_rcc.o(i.RCC_MCOConfig)
    i.Read_Eth_Packet                        0x08001e7c   Section        0  ethernetif.o(i.Read_Eth_Packet)
    i.SPI_Cmd                                0x08001ed0   Section        0  stm32f10x_spi.o(i.SPI_Cmd)
    i.SPI_Config                             0x08001ee8   Section        0  sd_stm32.o(i.SPI_Config)
    SPI_Config                               0x08001ee9   Thumb Code   146  sd_stm32.o(i.SPI_Config)
    i.SPI_I2S_GetFlagStatus                  0x08001f84   Section        0  stm32f10x_spi.o(i.SPI_I2S_GetFlagStatus)
    i.SPI_I2S_ReceiveData                    0x08001f96   Section        0  stm32f10x_spi.o(i.SPI_I2S_ReceiveData)
    i.SPI_I2S_SendData                       0x08001f9c   Section        0  stm32f10x_spi.o(i.SPI_I2S_SendData)
    i.SPI_Init                               0x08001fa0   Section        0  stm32f10x_spi.o(i.SPI_Init)
    i.SVC_Handler                            0x08001fdc   Section        0  stm32f10x_it.o(i.SVC_Handler)
    i.SendDataToSever                        0x08001fe0   Section        0  client_tcpudp.o(i.SendDataToSever)
    i.Set18b20IOin                           0x08001ff0   Section        0  ds18b20srom.o(i.Set18b20IOin)
    i.Set18b20IOout                          0x0800201c   Section        0  ds18b20srom.o(i.Set18b20IOout)
    i.SetSysClock                            0x08002048   Section        0  system_stm32f10x.o(i.SetSysClock)
    SetSysClock                              0x08002049   Thumb Code     8  system_stm32f10x.o(i.SetSysClock)
    i.SetSysClockTo72                        0x08002050   Section        0  system_stm32f10x.o(i.SetSysClockTo72)
    SetSysClockTo72                          0x08002051   Thumb Code   260  system_stm32f10x.o(i.SetSysClockTo72)
    i.Set_MAC_Address                        0x08002168   Section        0  ethernetif.o(i.Set_MAC_Address)
    i.SysTick_Handler                        0x08002194   Section        0  stm32f10x_it.o(i.SysTick_Handler)
    i.SystemInit                             0x0800219c   Section        0  system_stm32f10x.o(i.SystemInit)
    i.System_Setup                           0x080021fc   Section        0  stm32f107.o(i.System_Setup)
    i.TIM2_IRQHandler                        0x08002274   Section        0  main.o(i.TIM2_IRQHandler)
    i.TIM_ARRPreloadConfig                   0x080022a0   Section        0  stm32f10x_tim.o(i.TIM_ARRPreloadConfig)
    i.TIM_ClearFlag                          0x080022b8   Section        0  stm32f10x_tim.o(i.TIM_ClearFlag)
    i.TIM_ClearITPendingBit                  0x080022be   Section        0  stm32f10x_tim.o(i.TIM_ClearITPendingBit)
    i.TIM_Cmd                                0x080022c4   Section        0  stm32f10x_tim.o(i.TIM_Cmd)
    i.TIM_GetITStatus                        0x080022dc   Section        0  stm32f10x_tim.o(i.TIM_GetITStatus)
    i.TIM_ITConfig                           0x080022fe   Section        0  stm32f10x_tim.o(i.TIM_ITConfig)
    i.TIM_SetCounter                         0x08002316   Section        0  stm32f10x_tim.o(i.TIM_SetCounter)
    i.TIM_TimeBaseInit                       0x0800231c   Section        0  stm32f10x_tim.o(i.TIM_TimeBaseInit)
    i.TcpTestThread                          0x08002358   Section        0  client_tcpudp.o(i.TcpTestThread)
    i.Tcp_accept                             0x080023c0   Section        0  client_tcpudp.o(i.Tcp_accept)
    i.Tcp_recv                               0x08002400   Section        0  client_tcpudp.o(i.Tcp_recv)
    i.TemperatureThread                      0x08002428   Section        0  ds18b20srom.o(i.TemperatureThread)
    i.TftpTrm250ms                           0x08002504   Section        0  tftpserver.o(i.TftpTrm250ms)
    i.Time_Update                            0x08002560   Section        0  main.o(i.Time_Update)
    i.UDPSendData                            0x08002564   Section        0  client_tcpudp.o(i.UDPSendData)
    i.UsageFault_Handler                     0x080025f0   Section        0  stm32f10x_it.o(i.UsageFault_Handler)
    i.Write18b20IO                           0x080025f4   Section        0  ds18b20srom.o(i.Write18b20IO)
    i.__scatterload_copy                     0x08002614   Section       14  handlers.o(i.__scatterload_copy)
    i.__scatterload_null                     0x08002622   Section        2  handlers.o(i.__scatterload_null)
    i.__scatterload_zeroinit                 0x08002624   Section       14  handlers.o(i.__scatterload_zeroinit)
    i.conn_err                               0x08002632   Section        0  client_tcpudp.o(i.conn_err)
    conn_err                                 0x08002633   Thumb Code     2  client_tcpudp.o(i.conn_err)
    i.crc7                                   0x08002634   Section        0  sd.o(i.crc7)
    crc7                                     0x08002635   Thumb Code    90  sd.o(i.crc7)
    i.dir_addCluster                         0x0800268e   Section        0  dir.o(i.dir_addCluster)
    i.dir_createDefaultEntry                 0x080026fc   Section        0  dir.o(i.dir_createDefaultEntry)
    i.dir_createDirectoryEntry               0x08002732   Section        0  dir.o(i.dir_createDirectoryEntry)
    i.dir_findFileinBuf                      0x08002762   Section        0  dir.o(i.dir_findFileinBuf)
    i.dir_findFreeEntryinBuf                 0x080027ce   Section        0  dir.o(i.dir_findFreeEntryinBuf)
    i.dir_findinBuf                          0x08002816   Section        0  dir.o(i.dir_findinBuf)
    i.dir_findinCluster                      0x08002846   Section        0  dir.o(i.dir_findinCluster)
    i.dir_findinDir                          0x080028b8   Section        0  dir.o(i.dir_findinDir)
    i.dir_findinRootArea                     0x08002922   Section        0  dir.o(i.dir_findinRootArea)
    i.dir_getFatFileName                     0x080029a0   Section        0  dir.o(i.dir_getFatFileName)
    i.dir_getFileStructure                   0x080029e8   Section        0  dir.o(i.dir_getFileStructure)
    i.dir_setFileSize                        0x08002a18   Section        0  dir.o(i.dir_setFileSize)
    i.dir_setFirstCluster                    0x08002a42   Section        0  dir.o(i.dir_setFirstCluster)
    i.dir_updateDirectoryEntry               0x08002a76   Section        0  dir.o(i.dir_updateDirectoryEntry)
    i.disc_initDisc                          0x08002aa8   Section        0  disc.o(i.disc_initDisc)
    i.disc_loadMBR                           0x08002abc   Section        0  disc.o(i.disc_loadMBR)
    i.docrc8                                 0x08002af8   Section        0  ds18b20sech.o(i.docrc8)
    i.efs_init                               0x08002b18   Section        0  efs.o(i.efs_init)
    i.etharp_arp_input                       0x08002b8c   Section        0  etharp.o(i.etharp_arp_input)
    etharp_arp_input                         0x08002b8d   Thumb Code   346  etharp.o(i.etharp_arp_input)
    i.etharp_find_entry                      0x08002cec   Section        0  etharp.o(i.etharp_find_entry)
    etharp_find_entry                        0x08002ced   Thumb Code   408  etharp.o(i.etharp_find_entry)
    i.etharp_free_entry                      0x08002e88   Section        0  etharp.o(i.etharp_free_entry)
    etharp_free_entry                        0x08002e89   Thumb Code    58  etharp.o(i.etharp_free_entry)
    i.etharp_output                          0x08002ec8   Section        0  etharp.o(i.etharp_output)
    i.etharp_output_to_arp_index             0x0800303c   Section        0  etharp.o(i.etharp_output_to_arp_index)
    etharp_output_to_arp_index               0x0800303d   Thumb Code   124  etharp.o(i.etharp_output_to_arp_index)
    i.etharp_query                           0x080030bc   Section        0  etharp.o(i.etharp_query)
    i.etharp_raw                             0x0800326c   Section        0  etharp.o(i.etharp_raw)
    etharp_raw                               0x0800326d   Thumb Code   232  etharp.o(i.etharp_raw)
    i.etharp_request                         0x08003358   Section        0  etharp.o(i.etharp_request)
    i.etharp_send_ip                         0x08003384   Section        0  etharp.o(i.etharp_send_ip)
    etharp_send_ip                           0x08003385   Thumb Code    68  etharp.o(i.etharp_send_ip)
    i.etharp_tmr                             0x080033c8   Section        0  etharp.o(i.etharp_tmr)
    i.etharp_update_arp_entry                0x08003454   Section        0  etharp.o(i.etharp_update_arp_entry)
    etharp_update_arp_entry                  0x08003455   Thumb Code   190  etharp.o(i.etharp_update_arp_entry)
    i.ethernet_input                         0x08003518   Section        0  etharp.o(i.ethernet_input)
    i.ethernetif_init                        0x08003604   Section        0  ethernetif.o(i.ethernetif_init)
    i.ethernetif_input                       0x0800365c   Section        0  ethernetif.o(i.ethernetif_input)
    i.ex_getPartitionField                   0x08003688   Section        0  extract.o(i.ex_getPartitionField)
    i.ex_getb16                              0x080036d4   Section        0  extract.o(i.ex_getb16)
    i.ex_getb32                              0x080036e4   Section        0  extract.o(i.ex_getb32)
    i.fat_DiscToLogicCluster                 0x08003702   Section        0  fat.o(i.fat_DiscToLogicCluster)
    i.fat_LogicToDiscCluster                 0x08003748   Section        0  fat.o(i.fat_LogicToDiscCluster)
    i.fat_allocClusterChain                  0x080037a4   Section        0  fat.o(i.fat_allocClusterChain)
    i.fat_countClustersInChain               0x080038e0   Section        0  fat.o(i.fat_countClustersInChain)
    i.fat_getNextClusterAddress              0x08003918   Section        0  fat.o(i.fat_getNextClusterAddress)
    i.fat_getNextClusterAddressWBuf          0x080039d4   Section        0  fat.o(i.fat_getNextClusterAddressWBuf)
    i.fat_getNextClusterChain                0x08003a70   Section        0  fat.o(i.fat_getNextClusterChain)
    i.fat_getSectorAddressFatEntry           0x08003b1c   Section        0  fat.o(i.fat_getSectorAddressFatEntry)
    i.fat_giveEocMarker                      0x08003b6e   Section        0  fat.o(i.fat_giveEocMarker)
    i.fat_isEocMarker                        0x08003b98   Section        0  fat.o(i.fat_isEocMarker)
    i.fat_setNextClusterAddress              0x08003be4   Section        0  fat.o(i.fat_setNextClusterAddress)
    i.fat_setNextClusterAddressWBuf          0x08003d04   Section        0  fat.o(i.fat_setNextClusterAddressWBuf)
    i.file_fclose                            0x08003de4   Section        0  file.o(i.file_fclose)
    i.file_fopen                             0x08003e4c   Section        0  file.o(i.file_fopen)
    i.file_fread                             0x080040c8   Section        0  file.o(i.file_fread)
    i.file_fwrite                            0x080041c8   Section        0  file.o(i.file_fwrite)
    i.file_getAttr                           0x08004310   Section        0  file.o(i.file_getAttr)
    i.file_initFile                          0x0800431e   Section        0  file.o(i.file_initFile)
    i.file_normalToFatName                   0x08004350   Section        0  file.o(i.file_normalToFatName)
    i.file_read                              0x080043e6   Section        0  file.o(i.file_read)
    i.file_requiredCluster                   0x0800440a   Section        0  file.o(i.file_requiredCluster)
    i.file_setAttr                           0x0800447a   Section        0  file.o(i.file_setAttr)
    i.file_setpos                            0x080044a0   Section        0  file.o(i.file_setpos)
    i.file_validateChar                      0x080044b4   Section        0  file.o(i.file_validateChar)
    i.file_write                             0x080044f8   Section        0  file.o(i.file_write)
    i.fs_bytes_left                          0x0800451c   Section        0  fs_lwip.o(i.fs_bytes_left)
    i.fs_clearCluster                        0x08004526   Section        0  fs.o(i.fs_clearCluster)
    i.fs_close                               0x0800456c   Section        0  fs_lwip.o(i.fs_close)
    i.fs_clusterToSector                     0x0800456e   Section        0  fs.o(i.fs_clusterToSector)
    i.fs_countDataSectors                    0x080045a8   Section        0  fs.o(i.fs_countDataSectors)
    i.fs_determineFatType                    0x08004600   Section        0  fs.o(i.fs_determineFatType)
    i.fs_findFile                            0x08004634   Section        0  fs.o(i.fs_findFile)
    i.fs_findFirstSectorRootDir              0x08004704   Section        0  fs.o(i.fs_findFirstSectorRootDir)
    i.fs_findFreeFile                        0x08004732   Section        0  fs.o(i.fs_findFreeFile)
    i.fs_flushFs                             0x080047a2   Section        0  fs.o(i.fs_flushFs)
    i.fs_getFirstClusterRootDir              0x080047b2   Section        0  fs.o(i.fs_getFirstClusterRootDir)
    i.fs_getLastCluster                      0x080047c4   Section        0  fs.o(i.fs_getLastCluster)
    i.fs_getNextFreeCluster                  0x08004800   Section        0  fs.o(i.fs_getNextFreeCluster)
    i.fs_giveFreeClusterHint                 0x08004826   Section        0  fs.o(i.fs_giveFreeClusterHint)
    i.fs_hasTimeSupport                      0x0800482c   Section        0  time.o(i.fs_hasTimeSupport)
    i.fs_initClusterChain                    0x08004830   Section        0  fs.o(i.fs_initClusterChain)
    i.fs_initCurrentDir                      0x08004840   Section        0  fs.o(i.fs_initCurrentDir)
    i.fs_initFs                              0x0800484e   Section        0  fs.o(i.fs_initFs)
    i.fs_isValidFat                          0x08004896   Section        0  fs.o(i.fs_isValidFat)
    i.fs_loadVolumeId                        0x080048c8   Section        0  fs.o(i.fs_loadVolumeId)
    i.fs_open                                0x0800493c   Section        0  fs_lwip.o(i.fs_open)
    i.fs_setFirstClusterInDirEntry           0x08004980   Section        0  fs.o(i.fs_setFirstClusterInDirEntry)
    i.fs_umount                              0x08004988   Section        0  fs.o(i.fs_umount)
    i.fs_verifySanity                        0x08004994   Section        0  fs.o(i.fs_verifySanity)
    i.get_spi_BaudRatePrescaler              0x08004a46   Section        0  sd.o(i.get_spi_BaudRatePrescaler)
    i.http_accept                            0x08004a4c   Section        0  httpd.o(i.http_accept)
    http_accept                              0x08004a4d   Thumb Code   124  httpd.o(i.http_accept)
    i.http_check_eof                         0x08004ad8   Section        0  httpd.o(i.http_check_eof)
    http_check_eof                           0x08004ad9   Thumb Code    58  httpd.o(i.http_check_eof)
    i.http_close_conn                        0x08004b12   Section        0  httpd.o(i.http_close_conn)
    http_close_conn                          0x08004b13   Thumb Code    18  httpd.o(i.http_close_conn)
    i.http_close_or_abort_conn               0x08004b24   Section        0  httpd.o(i.http_close_or_abort_conn)
    http_close_or_abort_conn                 0x08004b25   Thumb Code    98  httpd.o(i.http_close_or_abort_conn)
    i.http_eof                               0x08004b8c   Section        0  httpd.o(i.http_eof)
    http_eof                                 0x08004b8d   Thumb Code    16  httpd.o(i.http_eof)
    i.http_err                               0x08004b9c   Section        0  httpd.o(i.http_err)
    http_err                                 0x08004b9d   Thumb Code    18  httpd.o(i.http_err)
    i.http_find_file                         0x08004bb0   Section        0  httpd.o(i.http_find_file)
    http_find_file                           0x08004bb1   Thumb Code   182  httpd.o(i.http_find_file)
    i.http_get_404_file                      0x08004c88   Section        0  httpd.o(i.http_get_404_file)
    http_get_404_file                        0x08004c89   Thumb Code    64  httpd.o(i.http_get_404_file)
    i.http_init_file                         0x08004cec   Section        0  httpd.o(i.http_init_file)
    http_init_file                           0x08004ced   Thumb Code   124  httpd.o(i.http_init_file)
    i.http_parse_request                     0x08004d70   Section        0  httpd.o(i.http_parse_request)
    http_parse_request                       0x08004d71   Thumb Code   326  httpd.o(i.http_parse_request)
    i.http_poll                              0x08004ed4   Section        0  httpd.o(i.http_poll)
    http_poll                                0x08004ed5   Thumb Code    82  httpd.o(i.http_poll)
    i.http_recv                              0x08004f26   Section        0  httpd.o(i.http_recv)
    http_recv                                0x08004f27   Thumb Code   162  httpd.o(i.http_recv)
    i.http_send                              0x08004fc8   Section        0  httpd.o(i.http_send)
    http_send                                0x08004fc9   Thumb Code    72  httpd.o(i.http_send)
    i.http_send_data_nonssi                  0x08005010   Section        0  httpd.o(i.http_send_data_nonssi)
    http_send_data_nonssi                    0x08005011   Thumb Code   106  httpd.o(i.http_send_data_nonssi)
    i.http_sent                              0x0800507a   Section        0  httpd.o(i.http_sent)
    http_sent                                0x0800507b   Thumb Code    38  httpd.o(i.http_sent)
    i.http_state_alloc                       0x080050a0   Section        0  httpd.o(i.http_state_alloc)
    http_state_alloc                         0x080050a1   Thumb Code    22  httpd.o(i.http_state_alloc)
    i.http_state_eof                         0x080050b6   Section        0  httpd.o(i.http_state_eof)
    http_state_eof                           0x080050b7   Thumb Code    34  httpd.o(i.http_state_eof)
    i.http_state_free                        0x080050d8   Section        0  httpd.o(i.http_state_free)
    http_state_free                          0x080050d9   Thumb Code    20  httpd.o(i.http_state_free)
    i.http_state_init                        0x080050ec   Section        0  httpd.o(i.http_state_init)
    http_state_init                          0x080050ed   Thumb Code    14  httpd.o(i.http_state_init)
    i.http_write                             0x080050fc   Section        0  httpd.o(i.http_write)
    http_write                               0x080050fd   Thumb Code   216  httpd.o(i.http_write)
    i.httpd_init                             0x080051d8   Section        0  httpd.o(i.httpd_init)
    i.httpd_init_addr                        0x080051e8   Section        0  httpd.o(i.httpd_init_addr)
    httpd_init_addr                          0x080051e9   Thumb Code    88  httpd.o(i.httpd_init_addr)
    i.icmp_dest_unreach                      0x08005248   Section        0  icmp.o(i.icmp_dest_unreach)
    i.icmp_input                             0x0800525c   Section        0  icmp.o(i.icmp_input)
    i.icmp_send_response                     0x0800547c   Section        0  icmp.o(i.icmp_send_response)
    icmp_send_response                       0x0800547d   Thumb Code   138  icmp.o(i.icmp_send_response)
    i.icmp_time_exceeded                     0x0800550c   Section        0  icmp.o(i.icmp_time_exceeded)
    i.if_initInterface                       0x0800551e   Section        0  sd_stm32.o(i.if_initInterface)
    i.if_readBuf                             0x0800556a   Section        0  sd_stm32.o(i.if_readBuf)
    i.if_spiInit                             0x08005584   Section        0  sd_stm32.o(i.if_spiInit)
    i.if_spiSend                             0x080055b0   Section        0  sd_stm32.o(i.if_spiSend)
    i.if_writeBuf                            0x08005604   Section        0  sd_stm32.o(i.if_writeBuf)
    i.inet_chksum                            0x08005618   Section        0  inet_chksum.o(i.inet_chksum)
    i.inet_chksum_pbuf                       0x0800562c   Section        0  inet_chksum.o(i.inet_chksum_pbuf)
    i.inet_chksum_pseudo                     0x08005682   Section        0  inet_chksum.o(i.inet_chksum_pseudo)
    i.ioman_decUseCnt                        0x08005726   Section        0  ioman.o(i.ioman_decUseCnt)
    i.ioman_directSectorRead                 0x08005750   Section        0  ioman.o(i.ioman_directSectorRead)
    i.ioman_directSectorWrite                0x080057d6   Section        0  ioman.o(i.ioman_directSectorWrite)
    i.ioman_findFreeSpot                     0x0800587e   Section        0  ioman.o(i.ioman_findFreeSpot)
    i.ioman_findOverallocableSpot            0x080058a6   Section        0  ioman.o(i.ioman_findOverallocableSpot)
    i.ioman_findSectorInCache                0x0800591a   Section        0  ioman.o(i.ioman_findSectorInCache)
    i.ioman_findUnusedSpot                   0x08005950   Section        0  ioman.o(i.ioman_findUnusedSpot)
    i.ioman_flushRange                       0x080059de   Section        0  ioman.o(i.ioman_flushRange)
    i.ioman_flushSector                      0x08005a4c   Section        0  ioman.o(i.ioman_flushSector)
    i.ioman_getAttr                          0x08005aac   Section        0  ioman.o(i.ioman_getAttr)
    i.ioman_getBp                            0x08005acc   Section        0  ioman.o(i.ioman_getBp)
    i.ioman_getBuffer                        0x08005afa   Section        0  ioman.o(i.ioman_getBuffer)
    i.ioman_getPtr                           0x08005b02   Section        0  ioman.o(i.ioman_getPtr)
    i.ioman_getRefCnt                        0x08005b1a   Section        0  ioman.o(i.ioman_getRefCnt)
    i.ioman_getSector                        0x08005b32   Section        0  ioman.o(i.ioman_getSector)
    i.ioman_getUseCnt                        0x08005c76   Section        0  ioman.o(i.ioman_getUseCnt)
    i.ioman_incRefCnt                        0x08005c8e   Section        0  ioman.o(i.ioman_incRefCnt)
    i.ioman_incUseCnt                        0x08005cba   Section        0  ioman.o(i.ioman_incUseCnt)
    i.ioman_init                             0x08005ce6   Section        0  ioman.o(i.ioman_init)
    i.ioman_pop                              0x08005d0a   Section        0  ioman.o(i.ioman_pop)
    i.ioman_push                             0x08005d8a   Section        0  ioman.o(i.ioman_push)
    i.ioman_putSectorInCache                 0x08005e02   Section        0  ioman.o(i.ioman_putSectorInCache)
    i.ioman_readSector                       0x08005e4e   Section        0  ioman.o(i.ioman_readSector)
    i.ioman_releaseSector                    0x08005e7c   Section        0  ioman.o(i.ioman_releaseSector)
    i.ioman_reset                            0x08005ed6   Section        0  ioman.o(i.ioman_reset)
    i.ioman_resetCacheItem                   0x08005f50   Section        0  ioman.o(i.ioman_resetCacheItem)
    i.ioman_setAttr                          0x08005f76   Section        0  ioman.o(i.ioman_setAttr)
    i.ioman_writeSector                      0x08005fb4   Section        0  ioman.o(i.ioman_writeSector)
    i.ip4_addr_isbroadcast                   0x08005fe4   Section        0  ip_addr.o(i.ip4_addr_isbroadcast)
    i.ip_frag                                0x08006034   Section        0  ip_frag.o(i.ip_frag)
    i.ip_frag_alloc_pbuf_custom_ref          0x080061fc   Section        0  ip_frag.o(i.ip_frag_alloc_pbuf_custom_ref)
    ip_frag_alloc_pbuf_custom_ref            0x080061fd   Thumb Code    10  ip_frag.o(i.ip_frag_alloc_pbuf_custom_ref)
    i.ip_frag_free_pbuf_custom_ref           0x08006206   Section        0  ip_frag.o(i.ip_frag_free_pbuf_custom_ref)
    ip_frag_free_pbuf_custom_ref             0x08006207   Thumb Code    24  ip_frag.o(i.ip_frag_free_pbuf_custom_ref)
    i.ip_input                               0x08006220   Section        0  ip.o(i.ip_input)
    i.ip_output                              0x08006458   Section        0  ip.o(i.ip_output)
    i.ip_output_if                           0x080064b0   Section        0  ip.o(i.ip_output_if)
    i.ip_reass                               0x080065f0   Section        0  ip_frag.o(i.ip_reass)
    i.ip_reass_chain_frag_into_datagram_and_validate 0x080067bc   Section        0  ip_frag.o(i.ip_reass_chain_frag_into_datagram_and_validate)
    ip_reass_chain_frag_into_datagram_and_validate 0x080067bd   Thumb Code   406  ip_frag.o(i.ip_reass_chain_frag_into_datagram_and_validate)
    i.ip_reass_dequeue_datagram              0x08006958   Section        0  ip_frag.o(i.ip_reass_dequeue_datagram)
    ip_reass_dequeue_datagram                0x08006959   Thumb Code    46  ip_frag.o(i.ip_reass_dequeue_datagram)
    i.ip_reass_enqueue_new_datagram          0x0800698c   Section        0  ip_frag.o(i.ip_reass_enqueue_new_datagram)
    ip_reass_enqueue_new_datagram            0x0800698d   Thumb Code    92  ip_frag.o(i.ip_reass_enqueue_new_datagram)
    i.ip_reass_free_complete_datagram        0x080069f0   Section        0  ip_frag.o(i.ip_reass_free_complete_datagram)
    ip_reass_free_complete_datagram          0x080069f1   Thumb Code   212  ip_frag.o(i.ip_reass_free_complete_datagram)
    i.ip_reass_remove_oldest_datagram        0x08006ac8   Section        0  ip_frag.o(i.ip_reass_remove_oldest_datagram)
    ip_reass_remove_oldest_datagram          0x08006ac9   Thumb Code   118  ip_frag.o(i.ip_reass_remove_oldest_datagram)
    i.ip_route                               0x08006b44   Section        0  ip.o(i.ip_route)
    i.ipfrag_free_pbuf_custom                0x08006bac   Section        0  ip_frag.o(i.ipfrag_free_pbuf_custom)
    ipfrag_free_pbuf_custom                  0x08006bad   Thumb Code    46  ip_frag.o(i.ipfrag_free_pbuf_custom)
    i.low_level_init                         0x08006bdc   Section        0  ethernetif.o(i.low_level_init)
    low_level_init                           0x08006bdd   Thumb Code   118  ethernetif.o(i.low_level_init)
    i.low_level_input                        0x08006c68   Section        0  ethernetif.o(i.low_level_input)
    low_level_input                          0x08006c69   Thumb Code    66  ethernetif.o(i.low_level_input)
    i.low_level_output                       0x08006cb4   Section        0  ethernetif.o(i.low_level_output)
    low_level_output                         0x08006cb5   Thumb Code    52  ethernetif.o(i.low_level_output)
    i.ls_openDir                             0x08006ce8   Section        0  ls.o(i.ls_openDir)
    i.lwip_htonl                             0x08006d2c   Section        0  def.o(i.lwip_htonl)
    i.lwip_htons                             0x08006d46   Section        0  def.o(i.lwip_htons)
    i.lwip_ntohl                             0x08006d52   Section        0  def.o(i.lwip_ntohl)
    i.lwip_ntohs                             0x08006d5e   Section        0  def.o(i.lwip_ntohs)
    i.lwip_standard_chksum                   0x08006d6a   Section        0  inet_chksum.o(i.lwip_standard_chksum)
    lwip_standard_chksum                     0x08006d6b   Thumb Code    94  inet_chksum.o(i.lwip_standard_chksum)
    i.main                                   0x08006dc8   Section        0  main.o(i.main)
    i.memClr                                 0x08006e1c   Section        0  plibc.o(i.memClr)
    i.memCpy                                 0x08006e2e   Section        0  plibc.o(i.memCpy)
    i.mem_free                               0x08006e48   Section        0  mem.o(i.mem_free)
    i.mem_init                               0x08006eec   Section        0  mem.o(i.mem_init)
    i.mem_malloc                             0x08006f54   Section        0  mem.o(i.mem_malloc)
    i.mem_trim                               0x080070f0   Section        0  mem.o(i.mem_trim)
    i.memp_free                              0x08007284   Section        0  memp.o(i.memp_free)
    i.memp_init                              0x080072e4   Section        0  memp.o(i.memp_init)
    i.memp_malloc                            0x08007380   Section        0  memp.o(i.memp_malloc)
    i.my_if_spiSend                          0x08007444   Section        0  sd_stm32.o(i.my_if_spiSend)
    my_if_spiSend                            0x08007445   Thumb Code    40  sd_stm32.o(i.my_if_spiSend)
    i.netbios_init                           0x08007470   Section        0  netbios.o(i.netbios_init)
    i.netbios_name_decoding                  0x080074a8   Section        0  netbios.o(i.netbios_name_decoding)
    netbios_name_decoding                    0x080074a9   Thumb Code   128  netbios.o(i.netbios_name_decoding)
    i.netbios_recv                           0x08007528   Section        0  netbios.o(i.netbios_recv)
    netbios_recv                             0x08007529   Thumb Code   216  netbios.o(i.netbios_recv)
    i.netif_add                              0x08007610   Section        0  netif.o(i.netif_add)
    i.netif_set_addr                         0x08007684   Section        0  netif.o(i.netif_set_addr)
    i.netif_set_default                      0x080076ac   Section        0  netif.o(i.netif_set_default)
    i.netif_set_gw                           0x080076b8   Section        0  netif.o(i.netif_set_gw)
    i.netif_set_ipaddr                       0x080076c4   Section        0  netif.o(i.netif_set_ipaddr)
    i.netif_set_netmask                      0x0800773c   Section        0  netif.o(i.netif_set_netmask)
    i.netif_set_up                           0x08007748   Section        0  netif.o(i.netif_set_up)
    i.part_directSectorRead                  0x0800777e   Section        0  partition.o(i.part_directSectorRead)
    i.part_directSectorWrite                 0x080077a2   Section        0  partition.o(i.part_directSectorWrite)
    i.part_flushPart                         0x080077c6   Section        0  partition.o(i.part_flushPart)
    i.part_getRealLBA                        0x080077f4   Section        0  partition.o(i.part_getRealLBA)
    i.part_getSect                           0x08007808   Section        0  partition.o(i.part_getSect)
    i.part_initPartition                     0x0800782c   Section        0  partition.o(i.part_initPartition)
    i.part_isFatPart                         0x0800785a   Section        0  partition.o(i.part_isFatPart)
    i.part_relSect                           0x08007880   Section        0  partition.o(i.part_relSect)
    i.pbuf_alloc                             0x08007892   Section        0  pbuf.o(i.pbuf_alloc)
    i.pbuf_alloced_custom                    0x08007a9c   Section        0  pbuf.o(i.pbuf_alloced_custom)
    i.pbuf_cat                               0x08007b0c   Section        0  pbuf.o(i.pbuf_cat)
    i.pbuf_chain                             0x08007b5c   Section        0  pbuf.o(i.pbuf_chain)
    i.pbuf_clen                              0x08007b72   Section        0  pbuf.o(i.pbuf_clen)
    i.pbuf_copy                              0x08007b84   Section        0  pbuf.o(i.pbuf_copy)
    i.pbuf_copy_partial                      0x08007c68   Section        0  pbuf.o(i.pbuf_copy_partial)
    i.pbuf_free                              0x08007d02   Section        0  pbuf.o(i.pbuf_free)
    i.pbuf_header                            0x08007dbc   Section        0  pbuf.o(i.pbuf_header)
    i.pbuf_realloc                           0x08007e48   Section        0  pbuf.o(i.pbuf_realloc)
    i.pbuf_ref                               0x08007ef8   Section        0  pbuf.o(i.pbuf_ref)
    i.plug_holes                             0x08007f04   Section        0  mem.o(i.plug_holes)
    plug_holes                               0x08007f05   Thumb Code   168  mem.o(i.plug_holes)
    i.process_tftp_request                   0x08007fb8   Section        0  tftpserver.o(i.process_tftp_request)
    i.raw_input                              0x08008164   Section        0  raw.o(i.raw_input)
    i.recv_callback_tftp                     0x080081d8   Section        0  tftpserver.o(i.recv_callback_tftp)
    i.rrq_recv_callback                      0x080081fc   Section        0  tftpserver.o(i.rrq_recv_callback)
    i.sd_Command                             0x0800826c   Section        0  sd.o(i.sd_Command)
    i.sd_Command_crc                         0x080082be   Section        0  sd.o(i.sd_Command_crc)
    i.sd_Init                                0x08008344   Section        0  sd.o(i.sd_Init)
    i.sd_Resp16b                             0x080085bc   Section        0  sd.o(i.sd_Resp16b)
    i.sd_Resp8b                              0x080085dc   Section        0  sd.o(i.sd_Resp8b)
    i.sd_Resp8bError                         0x08008602   Section        0  sd.o(i.sd_Resp8bError)
    i.sd_State                               0x08008636   Section        0  sd.o(i.sd_State)
    i.sd_getDriveSize                        0x080086a8   Section        0  sd.o(i.sd_getDriveSize)
    i.sd_readSector                          0x080087fc   Section        0  sd.o(i.sd_readSector)
    i.sd_writeSector                         0x080088a4   Section        0  sd.o(i.sd_writeSector)
    i.strMatch                               0x08008928   Section        0  plibc.o(i.strMatch)
    i.strnstr                                0x08008948   Section        0  httpd.o(i.strnstr)
    strnstr                                  0x08008949   Thumb Code    74  httpd.o(i.strnstr)
    i.tcp_abandon                            0x08008994   Section        0  tcp.o(i.tcp_abandon)
    i.tcp_abort                              0x08008a34   Section        0  tcp.o(i.tcp_abort)
    i.tcp_accept                             0x08008a42   Section        0  tcp.o(i.tcp_accept)
    i.tcp_accept_null                        0x08008a46   Section        0  tcp.o(i.tcp_accept_null)
    tcp_accept_null                          0x08008a47   Thumb Code     8  tcp.o(i.tcp_accept_null)
    i.tcp_alloc                              0x08008a50   Section        0  tcp.o(i.tcp_alloc)
    i.tcp_arg                                0x08008b68   Section        0  tcp.o(i.tcp_arg)
    i.tcp_bind                               0x08008b6c   Section        0  tcp.o(i.tcp_bind)
    i.tcp_client_callback                    0x08008c08   Section        0  client_tcpudp.o(i.tcp_client_callback)
    i.tcp_client_connected                   0x08008c70   Section        0  client_tcpudp.o(i.tcp_client_connected)
    i.tcp_client_err                         0x08008cd0   Section        0  client_tcpudp.o(i.tcp_client_err)
    i.tcp_client_reciver                     0x08008cfc   Section        0  client_tcpudp.o(i.tcp_client_reciver)
    i.tcp_close                              0x08008f68   Section        0  tcp.o(i.tcp_close)
    i.tcp_close_shutdown                     0x08008f84   Section        0  tcp.o(i.tcp_close_shutdown)
    tcp_close_shutdown                       0x08008f85   Thumb Code   444  tcp.o(i.tcp_close_shutdown)
    i.tcp_connect                            0x08009158   Section        0  tcp.o(i.tcp_connect)
    i.tcp_create_segment                     0x080092b0   Section        0  tcp_out.o(i.tcp_create_segment)
    tcp_create_segment                       0x080092b1   Thumb Code   190  tcp_out.o(i.tcp_create_segment)
    i.tcp_eff_send_mss                       0x08009374   Section        0  tcp.o(i.tcp_eff_send_mss)
    i.tcp_enqueue_flags                      0x080093a4   Section        0  tcp_out.o(i.tcp_enqueue_flags)
    i.tcp_err                                0x08009530   Section        0  tcp.o(i.tcp_err)
    i.tcp_fasttmr                            0x08009544   Section        0  tcp.o(i.tcp_fasttmr)
    i.tcp_input                              0x080095c8   Section        0  tcp_in.o(i.tcp_input)
    i.tcp_keepalive                          0x08009b44   Section        0  tcp_out.o(i.tcp_keepalive)
    i.tcp_kill_prio                          0x08009bac   Section        0  tcp.o(i.tcp_kill_prio)
    tcp_kill_prio                            0x08009bad   Thumb Code    76  tcp.o(i.tcp_kill_prio)
    i.tcp_kill_timewait                      0x08009c00   Section        0  tcp.o(i.tcp_kill_timewait)
    tcp_kill_timewait                        0x08009c01   Thumb Code    50  tcp.o(i.tcp_kill_timewait)
    i.tcp_listen_input                       0x08009c3c   Section        0  tcp_in.o(i.tcp_listen_input)
    tcp_listen_input                         0x08009c3d   Thumb Code   282  tcp_in.o(i.tcp_listen_input)
    i.tcp_listen_with_backlog                0x08009d80   Section        0  tcp.o(i.tcp_listen_with_backlog)
    i.tcp_new                                0x08009e5c   Section        0  tcp.o(i.tcp_new)
    i.tcp_new_port                           0x08009e68   Section        0  tcp.o(i.tcp_new_port)
    tcp_new_port                             0x08009e69   Thumb Code    96  tcp.o(i.tcp_new_port)
    i.tcp_next_iss                           0x08009ed0   Section        0  tcp.o(i.tcp_next_iss)
    i.tcp_output                             0x08009eec   Section        0  tcp_out.o(i.tcp_output)
    i.tcp_output_alloc_header                0x0800a0c0   Section        0  tcp_out.o(i.tcp_output_alloc_header)
    tcp_output_alloc_header                  0x0800a0c1   Thumb Code   134  tcp_out.o(i.tcp_output_alloc_header)
    i.tcp_output_segment                     0x0800a148   Section        0  tcp_out.o(i.tcp_output_segment)
    tcp_output_segment                       0x0800a149   Thumb Code   236  tcp_out.o(i.tcp_output_segment)
    i.tcp_parseopt                           0x0800a23c   Section        0  tcp_in.o(i.tcp_parseopt)
    tcp_parseopt                             0x0800a23d   Thumb Code   174  tcp_in.o(i.tcp_parseopt)
    i.tcp_pbuf_prealloc                      0x0800a2f0   Section        0  tcp_out.o(i.tcp_pbuf_prealloc)
    tcp_pbuf_prealloc                        0x0800a2f1   Thumb Code   128  tcp_out.o(i.tcp_pbuf_prealloc)
    i.tcp_pcb_purge                          0x0800a370   Section        0  tcp.o(i.tcp_pcb_purge)
    i.tcp_pcb_remove                         0x0800a3b0   Section        0  tcp.o(i.tcp_pcb_remove)
    i.tcp_poll                               0x0800a450   Section        0  tcp.o(i.tcp_poll)
    i.tcp_process                            0x0800a468   Section        0  tcp_in.o(i.tcp_process)
    tcp_process                              0x0800a469   Thumb Code  1414  tcp_in.o(i.tcp_process)
    i.tcp_process_refused_data               0x0800aa0c   Section        0  tcp.o(i.tcp_process_refused_data)
    i.tcp_receive                            0x0800aa98   Section        0  tcp_in.o(i.tcp_receive)
    tcp_receive                              0x0800aa99   Thumb Code  1730  tcp_in.o(i.tcp_receive)
    i.tcp_recv                               0x0800b170   Section        0  tcp.o(i.tcp_recv)
    i.tcp_recv_null                          0x0800b182   Section        0  tcp.o(i.tcp_recv_null)
    i.tcp_recved                             0x0800b1b0   Section        0  tcp.o(i.tcp_recved)
    i.tcp_rexmit                             0x0800b210   Section        0  tcp_out.o(i.tcp_rexmit)
    i.tcp_rexmit_fast                        0x0800b26a   Section        0  tcp_out.o(i.tcp_rexmit_fast)
    i.tcp_rexmit_rto                         0x0800b2da   Section        0  tcp_out.o(i.tcp_rexmit_rto)
    i.tcp_rst                                0x0800b314   Section        0  tcp_out.o(i.tcp_rst)
    i.tcp_seg_free                           0x0800b3c0   Section        0  tcp.o(i.tcp_seg_free)
    i.tcp_segs_free                          0x0800b3da   Section        0  tcp.o(i.tcp_segs_free)
    i.tcp_send_empty_ack                     0x0800b3f2   Section        0  tcp_out.o(i.tcp_send_empty_ack)
    i.tcp_send_fin                           0x0800b452   Section        0  tcp_out.o(i.tcp_send_fin)
    i.tcp_sent                               0x0800b49c   Section        0  tcp.o(i.tcp_sent)
    i.tcp_setprio                            0x0800b4ae   Section        0  tcp.o(i.tcp_setprio)
    i.tcp_sever_test                         0x0800b4b4   Section        0  client_tcpudp.o(i.tcp_sever_test)
    i.tcp_slowtmr                            0x0800b4ec   Section        0  tcp.o(i.tcp_slowtmr)
    i.tcp_timer_needed                       0x0800b878   Section        0  timers.o(i.tcp_timer_needed)
    i.tcp_timewait_input                     0x0800b87c   Section        0  tcp_in.o(i.tcp_timewait_input)
    tcp_timewait_input                       0x0800b87d   Thumb Code   140  tcp_in.o(i.tcp_timewait_input)
    i.tcp_tmr                                0x0800b928   Section        0  tcp.o(i.tcp_tmr)
    i.tcp_update_rcv_ann_wnd                 0x0800b94c   Section        0  tcp.o(i.tcp_update_rcv_ann_wnd)
    i.tcp_write                              0x0800b9a4   Section        0  tcp_out.o(i.tcp_write)
    i.tcp_write_checks                       0x0800bda8   Section        0  tcp_out.o(i.tcp_write_checks)
    tcp_write_checks                         0x0800bda9   Thumb Code   152  tcp_out.o(i.tcp_write_checks)
    i.tcp_zero_window_probe                  0x0800be44   Section        0  tcp_out.o(i.tcp_zero_window_probe)
    i.tftp_cleanup_rd                        0x0800bf10   Section        0  tftpserver.o(i.tftp_cleanup_rd)
    i.tftp_cleanup_wr                        0x0800bf54   Section        0  tftpserver.o(i.tftp_cleanup_wr)
    i.tftp_construct_error_message           0x0800bf98   Section        0  tftpserver.o(i.tftp_construct_error_message)
    i.tftp_decode_op                         0x0800bfd0   Section        0  tftputils.o(i.tftp_decode_op)
    i.tftp_extract_block                     0x0800bfd6   Section        0  tftputils.o(i.tftp_extract_block)
    i.tftp_extract_filename                  0x0800bfe4   Section        0  tftputils.o(i.tftp_extract_filename)
    i.tftp_is_correct_ack                    0x0800bff4   Section        0  tftputils.o(i.tftp_is_correct_ack)
    i.tftp_process_read                      0x0800c01c   Section        0  tftpserver.o(i.tftp_process_read)
    i.tftp_process_write                     0x0800c0d0   Section        0  tftpserver.o(i.tftp_process_write)
    i.tftp_send_ack_packet                   0x0800c16c   Section        0  tftpserver.o(i.tftp_send_ack_packet)
    i.tftp_send_data_packet                  0x0800c19c   Section        0  tftpserver.o(i.tftp_send_data_packet)
    i.tftp_send_error_message                0x0800c1e4   Section        0  tftpserver.o(i.tftp_send_error_message)
    i.tftp_send_message                      0x0800c216   Section        0  tftpserver.o(i.tftp_send_message)
    i.tftp_send_next_block                   0x0800c260   Section        0  tftpserver.o(i.tftp_send_next_block)
    i.tftp_set_block                         0x0800c29c   Section        0  tftputils.o(i.tftp_set_block)
    i.tftp_set_data_message                  0x0800c2ae   Section        0  tftputils.o(i.tftp_set_data_message)
    i.tftp_set_errorcode                     0x0800c2c2   Section        0  tftputils.o(i.tftp_set_errorcode)
    i.tftp_set_errormsg                      0x0800c2ca   Section        0  tftputils.o(i.tftp_set_errormsg)
    i.tftp_set_opcode                        0x0800c2da   Section        0  tftputils.o(i.tftp_set_opcode)
    i.tftpd_init                             0x0800c2e4   Section        0  tftpserver.o(i.tftpd_init)
    i.udp_bind                               0x0800c328   Section        0  udp.o(i.udp_bind)
    i.udp_client_callback                    0x0800c3b0   Section        0  client_tcpudp.o(i.udp_client_callback)
    i.udp_client_callback_app                0x0800c40c   Section        0  client_tcpudp.o(i.udp_client_callback_app)
    i.udp_disconnect                         0x0800c44c   Section        0  udp.o(i.udp_disconnect)
    i.udp_input                              0x0800c45c   Section        0  udp.o(i.udp_input)
    i.udp_new                                0x0800c6b0   Section        0  udp.o(i.udp_new)
    i.udp_new_port                           0x0800c6cc   Section        0  udp.o(i.udp_new_port)
    udp_new_port                             0x0800c6cd   Thumb Code    80  udp.o(i.udp_new_port)
    i.udp_recv                               0x0800c724   Section        0  udp.o(i.udp_recv)
    i.udp_remove                             0x0800c72c   Section        0  udp.o(i.udp_remove)
    i.udp_sendto                             0x0800c76c   Section        0  udp.o(i.udp_sendto)
    i.udp_sendto_if                          0x0800c7b0   Section        0  udp.o(i.udp_sendto_if)
    i.wrq_recv_callback                      0x0800c8c4   Section        0  tftpserver.o(i.wrq_recv_callback)
    .constdata                               0x0800c990   Section       36  memp.o(.constdata)
    memp_sizes                               0x0800c990   Data          18  memp.o(.constdata)
    memp_num                                 0x0800c9a2   Data          18  memp.o(.constdata)
    .constdata                               0x0800c9b4   Section       80  tcp.o(.constdata)
    .constdata                               0x0800ca04   Section        8  ip_addr.o(.constdata)
    .constdata                               0x0800ca0c   Section       12  etharp.o(.constdata)
    .constdata                               0x0800ca18   Section    27300  fs_lwip.o(.constdata)
    data__img_sics_gif                       0x0800ca18   Data         847  fs_lwip.o(.constdata)
    data__404_html                           0x0800cd67   Data         696  fs_lwip.o(.constdata)
    data__index_html                         0x0800d01f   Data       25694  fs_lwip.o(.constdata)
    .conststring                             0x080134bc   Section      146  tftpserver.o(.conststring)
    .conststring                             0x0801354e   Section      104  tcp.o(.conststring)
    .data                                    0x20000000   Section        8  main.o(.data)
    .data                                    0x20000008   Section       32  netconf.o(.data)
    IPaddress                                0x20000018   Data           4  netconf.o(.data)
    .data                                    0x20000028   Section     1060  client_tcpudp.o(.data)
    .data                                    0x2000044c   Section       48  filesystem.o(.data)
    MP3count                                 0x2000044c   Data           4  filesystem.o(.data)
    filecount                                0x20000450   Data           4  filesystem.o(.data)
    deepsizeA                                0x20000474   Data           4  filesystem.o(.data)
    deepsizeB                                0x20000478   Data           4  filesystem.o(.data)
    .data                                    0x2000047c   Section       60  tftpserver.o(.data)
    .data                                    0x200004b8   Section       21  ds18b20srom.o(.data)
    fac_us                                   0x200004b8   Data           1  ds18b20srom.o(.data)
    fac_ms                                   0x200004ba   Data           2  ds18b20srom.o(.data)
    fistsech                                 0x200004cc   Data           1  ds18b20srom.o(.data)
    .data                                    0x200004d0   Section      277  ds18b20sech.o(.data)
    dscrc_table                              0x200004d0   Data         256  ds18b20sech.o(.data)
    .data                                    0x200005e5   Section       20  stm32f10x_rcc.o(.data)
    APBAHBPrescTable                         0x200005e5   Data          16  stm32f10x_rcc.o(.data)
    ADCPrescTable                            0x200005f5   Data           4  stm32f10x_rcc.o(.data)
    .data                                    0x200005fc   Section       16  stm32_eth.o(.data)
    .data                                    0x2000060c   Section       12  mem.o(.data)
    ram                                      0x2000060c   Data           4  mem.o(.data)
    ram_end                                  0x20000610   Data           4  mem.o(.data)
    lfree                                    0x20000614   Data           4  mem.o(.data)
    .data                                    0x20000618   Section        4  memp.o(.data)
    .data                                    0x2000061c   Section        9  netif.o(.data)
    netif_num                                0x20000624   Data           1  netif.o(.data)
    .data                                    0x20000628   Section        4  raw.o(.data)
    raw_pcbs                                 0x20000628   Data           4  raw.o(.data)
    .data                                    0x2000062c   Section       35  tcp.o(.data)
    tcp_port                                 0x2000062c   Data           2  tcp.o(.data)
    iss                                      0x20000630   Data           4  tcp.o(.data)
    tcp_timer                                0x2000064d   Data           1  tcp.o(.data)
    tcp_timer_ctr                            0x2000064e   Data           1  tcp.o(.data)
    .data                                    0x20000650   Section       32  tcp_in.o(.data)
    tcphdr                                   0x20000650   Data           4  tcp_in.o(.data)
    iphdr                                    0x20000654   Data           4  tcp_in.o(.data)
    seqno                                    0x20000658   Data           4  tcp_in.o(.data)
    ackno                                    0x2000065c   Data           4  tcp_in.o(.data)
    flags                                    0x20000660   Data           1  tcp_in.o(.data)
    tcplen                                   0x20000662   Data           2  tcp_in.o(.data)
    recv_flags                               0x20000664   Data           1  tcp_in.o(.data)
    recv_data                                0x20000668   Data           4  tcp_in.o(.data)
    .data                                    0x20000670   Section        8  udp.o(.data)
    udp_port                                 0x20000670   Data           2  udp.o(.data)
    .data                                    0x20000678   Section       18  ip.o(.data)
    ip_id                                    0x20000688   Data           2  ip.o(.data)
    .data                                    0x2000068c   Section        6  ip_frag.o(.data)
    reassdatagrams                           0x2000068c   Data           4  ip_frag.o(.data)
    ip_reass_pbufcount                       0x20000690   Data           2  ip_frag.o(.data)
    .data                                    0x20000692   Section        1  etharp.o(.data)
    etharp_cached_entry                      0x20000692   Data           1  etharp.o(.data)
    .data                                    0x20000694   Section       18  ethernetif.o(.data)
    .data                                    0x200006a8   Section        8  sd.o(.data)
    .bss                                     0x200006b0   Section       52  netconf.o(.bss)
    .bss                                     0x200006e4   Section       10  client_tcpudp.o(.bss)
    .bss                                     0x200006f0   Section     3200  filesystem.o(.bss)
    tempt                                    0x200006f0   Data          14  filesystem.o(.bss)
    .bss                                     0x20001370   Section     1648  tftpserver.o(.bss)
    .bss                                     0x200019e0   Section       49  ds18b20srom.o(.bss)
    .bss                                     0x20001a11   Section     6164  mem.o(.bss)
    .bss                                     0x20003228   Section    26763  memp.o(.bss)
    memp_tab                                 0x20003228   Data          36  memp.o(.bss)
    memp_memory                              0x2000324c   Data       26727  memp.o(.bss)
    .bss                                     0x20009ab4   Section      268  stats.o(.bss)
    .bss                                     0x20009bc0   Section       16  tcp_in.o(.bss)
    inseg                                    0x20009bc0   Data          16  tcp_in.o(.bss)
    .bss                                     0x20009bd0   Section      200  etharp.o(.bss)
    arp_table                                0x20009bd0   Data         200  etharp.o(.bss)
    .bss                                     0x20009c98   Section    10728  ethernetif.o(.bss)
    .bss                                     0x2000c680   Section     1848  httpd.o(.bss)
    httpd_req_buf                            0x2000c680   Data        1024  httpd.o(.bss)
    STACK                                    0x2000cdb8   Section     4096  startup_stm32f10x_cl.o(STACK)

    Global Symbols

    Symbol Name                              Value     Ov Type        Size  Object(Section)

    BuildAttributes$$THM_ISAv4$P$D$K$B$S$PE$A:L22UL41UL21$X:L11$S22US41US21$IEEE1$IW$USESV6$~STKCKD$USESV7$~SHL$OSPACE$ROPI$EBA8$MICROLIB$REQ8$PRES8$EABIv2 0x00000000   Number         0  anon$$obj.o ABSOLUTE
    __ARM_use_no_argv                        0x00000000   Number         0  main.o ABSOLUTE
    __Vectors_Size                           0x00000150   Number         0  startup_stm32f10x_cl.o ABSOLUTE
    __Vectors                                0x08000000   Data           4  startup_stm32f10x_cl.o(RESET)
    __Vectors_End                            0x08000150   Data           0  startup_stm32f10x_cl.o(RESET)
    __main                                   0x08000151   Thumb Code     0  entry.o(.ARM.Collect$$$$00000000)
    _main_stk                                0x08000151   Thumb Code     0  entry2.o(.ARM.Collect$$$$00000001)
    _main_scatterload                        0x08000155   Thumb Code     0  entry5.o(.ARM.Collect$$$$00000004)
    __main_after_scatterload                 0x08000159   Thumb Code     0  entry5.o(.ARM.Collect$$$$00000004)
    _main_init                               0x08000159   Thumb Code     0  entry7.o(.ARM.Collect$$$$00000007)
    wait                                     0x08000165   Thumb Code     2  stm32f10x_it.o(.emb_text)
    Reset_Handler                            0x08000169   Thumb Code     4  startup_stm32f10x_cl.o(.text)
    ADC1_2_IRQHandler                        0x0800017f   Thumb Code     0  startup_stm32f10x_cl.o(.text)
    CAN1_RX0_IRQHandler                      0x0800017f   Thumb Code     0  startup_stm32f10x_cl.o(.text)
    CAN1_RX1_IRQHandler                      0x0800017f   Thumb Code     0  startup_stm32f10x_cl.o(.text)
    CAN1_SCE_IRQHandler                      0x0800017f   Thumb Code     0  startup_stm32f10x_cl.o(.text)
    CAN1_TX_IRQHandler                       0x0800017f   Thumb Code     0  startup_stm32f10x_cl.o(.text)
    CAN2_RX0_IRQHandler                      0x0800017f   Thumb Code     0  startup_stm32f10x_cl.o(.text)
    CAN2_RX1_IRQHandler                      0x0800017f   Thumb Code     0  startup_stm32f10x_cl.o(.text)
    CAN2_SCE_IRQHandler                      0x0800017f   Thumb Code     0  startup_stm32f10x_cl.o(.text)
    CAN2_TX_IRQHandler                       0x0800017f   Thumb Code     0  startup_stm32f10x_cl.o(.text)
    DMA1_Channel1_IRQHandler                 0x0800017f   Thumb Code     0  startup_stm32f10x_cl.o(.text)
    DMA1_Channel2_IRQHandler                 0x0800017f   Thumb Code     0  startup_stm32f10x_cl.o(.text)
    DMA1_Channel3_IRQHandler                 0x0800017f   Thumb Code     0  startup_stm32f10x_cl.o(.text)
    DMA1_Channel4_IRQHandler                 0x0800017f   Thumb Code     0  startup_stm32f10x_cl.o(.text)
    DMA1_Channel5_IRQHandler                 0x0800017f   Thumb Code     0  startup_stm32f10x_cl.o(.text)
    DMA1_Channel6_IRQHandler                 0x0800017f   Thumb Code     0  startup_stm32f10x_cl.o(.text)
    DMA1_Channel7_IRQHandler                 0x0800017f   Thumb Code     0  startup_stm32f10x_cl.o(.text)
    DMA2_Channel1_IRQHandler                 0x0800017f   Thumb Code     0  startup_stm32f10x_cl.o(.text)
    DMA2_Channel2_IRQHandler                 0x0800017f   Thumb Code     0  startup_stm32f10x_cl.o(.text)
    DMA2_Channel3_IRQHandler                 0x0800017f   Thumb Code     0  startup_stm32f10x_cl.o(.text)
    DMA2_Channel4_IRQHandler                 0x0800017f   Thumb Code     0  startup_stm32f10x_cl.o(.text)
    DMA2_Channel5_IRQHandler                 0x0800017f   Thumb Code     0  startup_stm32f10x_cl.o(.text)
    ETH_WKUP_IRQHandler                      0x0800017f   Thumb Code     0  startup_stm32f10x_cl.o(.text)
    EXTI0_IRQHandler                         0x0800017f   Thumb Code     0  startup_stm32f10x_cl.o(.text)
    EXTI15_10_IRQHandler                     0x0800017f   Thumb Code     0  startup_stm32f10x_cl.o(.text)
    EXTI1_IRQHandler                         0x0800017f   Thumb Code     0  startup_stm32f10x_cl.o(.text)
    EXTI2_IRQHandler                         0x0800017f   Thumb Code     0  startup_stm32f10x_cl.o(.text)
    EXTI3_IRQHandler                         0x0800017f   Thumb Code     0  startup_stm32f10x_cl.o(.text)
    EXTI4_IRQHandler                         0x0800017f   Thumb Code     0  startup_stm32f10x_cl.o(.text)
    EXTI9_5_IRQHandler                       0x0800017f   Thumb Code     0  startup_stm32f10x_cl.o(.text)
    FLASH_IRQHandler                         0x0800017f   Thumb Code     0  startup_stm32f10x_cl.o(.text)
    I2C1_ER_IRQHandler                       0x0800017f   Thumb Code     0  startup_stm32f10x_cl.o(.text)
    I2C1_EV_IRQHandler                       0x0800017f   Thumb Code     0  startup_stm32f10x_cl.o(.text)
    I2C2_ER_IRQHandler                       0x0800017f   Thumb Code     0  startup_stm32f10x_cl.o(.text)
    I2C2_EV_IRQHandler                       0x0800017f   Thumb Code     0  startup_stm32f10x_cl.o(.text)
    OTG_FS_IRQHandler                        0x0800017f   Thumb Code     0  startup_stm32f10x_cl.o(.text)
    OTG_FS_WKUP_IRQHandler                   0x0800017f   Thumb Code     0  startup_stm32f10x_cl.o(.text)
    PVD_IRQHandler                           0x0800017f   Thumb Code     0  startup_stm32f10x_cl.o(.text)
    RCC_IRQHandler                           0x0800017f   Thumb Code     0  startup_stm32f10x_cl.o(.text)
    RTCAlarm_IRQHandler                      0x0800017f   Thumb Code     0  startup_stm32f10x_cl.o(.text)
    RTC_IRQHandler                           0x0800017f   Thumb Code     0  startup_stm32f10x_cl.o(.text)
    SPI1_IRQHandler                          0x0800017f   Thumb Code     0  startup_stm32f10x_cl.o(.text)
    SPI2_IRQHandler                          0x0800017f   Thumb Code     0  startup_stm32f10x_cl.o(.text)
    SPI3_IRQHandler                          0x0800017f   Thumb Code     0  startup_stm32f10x_cl.o(.text)
    TAMPER_IRQHandler                        0x0800017f   Thumb Code     0  startup_stm32f10x_cl.o(.text)
    TIM1_BRK_IRQHandler                      0x0800017f   Thumb Code     0  startup_stm32f10x_cl.o(.text)
    TIM1_CC_IRQHandler                       0x0800017f   Thumb Code     0  startup_stm32f10x_cl.o(.text)
    TIM1_TRG_COM_IRQHandler                  0x0800017f   Thumb Code     0  startup_stm32f10x_cl.o(.text)
    TIM1_UP_IRQHandler                       0x0800017f   Thumb Code     0  startup_stm32f10x_cl.o(.text)
    TIM3_IRQHandler                          0x0800017f   Thumb Code     0  startup_stm32f10x_cl.o(.text)
    TIM4_IRQHandler                          0x0800017f   Thumb Code     0  startup_stm32f10x_cl.o(.text)
    TIM5_IRQHandler                          0x0800017f   Thumb Code     0  startup_stm32f10x_cl.o(.text)
    TIM6_IRQHandler                          0x0800017f   Thumb Code     0  startup_stm32f10x_cl.o(.text)
    TIM7_IRQHandler                          0x0800017f   Thumb Code     0  startup_stm32f10x_cl.o(.text)
    UART4_IRQHandler                         0x0800017f   Thumb Code     0  startup_stm32f10x_cl.o(.text)
    UART5_IRQHandler                         0x0800017f   Thumb Code     0  startup_stm32f10x_cl.o(.text)
    USART1_IRQHandler                        0x0800017f   Thumb Code     0  startup_stm32f10x_cl.o(.text)
    USART2_IRQHandler                        0x0800017f   Thumb Code     0  startup_stm32f10x_cl.o(.text)
    USART3_IRQHandler                        0x0800017f   Thumb Code     0  startup_stm32f10x_cl.o(.text)
    WWDG_IRQHandler                          0x0800017f   Thumb Code     0  startup_stm32f10x_cl.o(.text)
    __aeabi_memcpy                           0x08000185   Thumb Code    36  memcpya.o(.text)
    __aeabi_memcpy4                          0x08000185   Thumb Code     0  memcpya.o(.text)
    __aeabi_memcpy8                          0x08000185   Thumb Code     0  memcpya.o(.text)
    __aeabi_memset                           0x080001a9   Thumb Code    14  memseta.o(.text)
    __aeabi_memset4                          0x080001a9   Thumb Code     0  memseta.o(.text)
    __aeabi_memset8                          0x080001a9   Thumb Code     0  memseta.o(.text)
    __aeabi_memclr                           0x080001b7   Thumb Code     4  memseta.o(.text)
    __aeabi_memclr4                          0x080001b7   Thumb Code     0  memseta.o(.text)
    __aeabi_memclr8                          0x080001b7   Thumb Code     0  memseta.o(.text)
    _memset$wrapper                          0x080001bb   Thumb Code    20  memseta.o(.text)
    strstr                                   0x080001cf   Thumb Code    44  strstr.o(.text)
    strchr                                   0x080001fb   Thumb Code    18  strchr.o(.text)
    strlen                                   0x0800020d   Thumb Code    16  strlen.o(.text)
    strcmp                                   0x0800021d   Thumb Code    28  strcmp.o(.text)
    memcmp                                   0x08000239   Thumb Code    26  memcmp.o(.text)
    strcpy                                   0x08000253   Thumb Code    18  strcpy.o(.text)
    strncmp                                  0x08000265   Thumb Code    30  strncmp.o(.text)
    __aeabi_dmul                             0x08000283   Thumb Code   226  dmul.o(.text)
    __aeabi_i2d                              0x08000365   Thumb Code    34  dflti.o(.text)
    __aeabi_d2iz                             0x08000387   Thumb Code    62  dfixi.o(.text)
    __aeabi_llsr                             0x080003c5   Thumb Code    32  llushr.o(.text)
    _ll_ushift_r                             0x080003c5   Thumb Code     0  llushr.o(.text)
    __I$use$fp                               0x080003e5   Thumb Code     0  iusefp.o(.text)
    _double_round                            0x080003e5   Thumb Code    26  depilogue.o(.text)
    _double_epilogue                         0x080003ff   Thumb Code   168  depilogue.o(.text)
    __scatterload                            0x080004a9   Thumb Code    28  init.o(.text)
    __scatterload_rt2                        0x080004a9   Thumb Code     0  init.o(.text)
    __aeabi_llsl                             0x080004cd   Thumb Code    30  llshl.o(.text)
    _ll_shift_l                              0x080004cd   Thumb Code     0  llshl.o(.text)
    __decompress                             0x080004eb   Thumb Code     0  __dczerorl2.o(.text)
    __decompress1                            0x080004eb   Thumb Code    92  __dczerorl2.o(.text)
    BusFault_Handler                         0x08000547   Thumb Code     4  stm32f10x_it.o(i.BusFault_Handler)
    DS1820main                               0x0800054d   Thumb Code   724  ds18b20srom.o(i.DS1820main)
    DS18B20_ReadBit                          0x08000831   Thumb Code    58  ds18b20srom.o(i.DS18B20_ReadBit)
    DS18B20_ReadData                         0x08000871   Thumb Code    36  ds18b20srom.o(i.DS18B20_ReadData)
    DS18B20_ReadDesignateTemper              0x08000895   Thumb Code   138  ds18b20srom.o(i.DS18B20_ReadDesignateTemper)
    DS18B20_Reset                            0x08000925   Thumb Code    94  ds18b20srom.o(i.DS18B20_Reset)
    DS18B20_WriteBit                         0x08000989   Thumb Code    48  ds18b20srom.o(i.DS18B20_WriteBit)
    DS18B20_WriteData                        0x080009b9   Thumb Code    30  ds18b20srom.o(i.DS18B20_WriteData)
    DebugMon_Handler                         0x080009d7   Thumb Code     2  stm32f10x_it.o(i.DebugMon_Handler)
    Delay_init                               0x080009d9   Thumb Code    44  ds18b20srom.o(i.Delay_init)
    Delay_us                                 0x08000a0d   Thumb Code    48  ds18b20srom.o(i.Delay_us)
    ETH_DMAClearITPendingBit                 0x08000a41   Thumb Code     6  stm32_eth.o(i.ETH_DMAClearITPendingBit)
    ETH_DMAITConfig                          0x08000a4d   Thumb Code    26  stm32_eth.o(i.ETH_DMAITConfig)
    ETH_DMAReceptionCmd                      0x08000a6d   Thumb Code    30  stm32_eth.o(i.ETH_DMAReceptionCmd)
    ETH_DMARxDescChainInit                   0x08000a91   Thumb Code    76  stm32_eth.o(i.ETH_DMARxDescChainInit)
    ETH_DMARxDescReceiveITConfig             0x08000ae5   Thumb Code    22  stm32_eth.o(i.ETH_DMARxDescReceiveITConfig)
    ETH_DMATransmissionCmd                   0x08000afd   Thumb Code    30  stm32_eth.o(i.ETH_DMATransmissionCmd)
    ETH_DMATxDescChainInit                   0x08000b21   Thumb Code    70  stm32_eth.o(i.ETH_DMATxDescChainInit)
    ETH_DeInit                               0x08000b71   Thumb Code    22  stm32_eth.o(i.ETH_DeInit)
    ETH_FlushTransmitFIFO                    0x08000b95   Thumb Code    14  stm32_eth.o(i.ETH_FlushTransmitFIFO)
    ETH_GetCurrentTxBuffer                   0x08000ba9   Thumb Code     8  ethernetif.o(i.ETH_GetCurrentTxBuffer)
    ETH_GetDMARxDescFrameLength              0x08000bb5   Thumb Code    10  stm32_eth.o(i.ETH_GetDMARxDescFrameLength)
    ETH_GetRxPktSize                         0x08000bc1   Thumb Code    66  stm32_eth.o(i.ETH_GetRxPktSize)
    ETH_GetSoftwareResetStatus               0x08000c09   Thumb Code    20  stm32_eth.o(i.ETH_GetSoftwareResetStatus)
    ETH_IRQHandler                           0x08000c21   Thumb Code    32  stm32f10x_it.o(i.ETH_IRQHandler)
    ETH_Init                                 0x08000c41   Thumb Code   552  stm32_eth.o(i.ETH_Init)
    ETH_MACAddressConfig                     0x08000e8d   Thumb Code    46  stm32_eth.o(i.ETH_MACAddressConfig)
    ETH_MACReceptionCmd                      0x08000ec1   Thumb Code    30  stm32_eth.o(i.ETH_MACReceptionCmd)
    ETH_MACTransmissionCmd                   0x08000ee5   Thumb Code    30  stm32_eth.o(i.ETH_MACTransmissionCmd)
    ETH_ReadPHYRegister                      0x08000f09   Thumb Code    88  stm32_eth.o(i.ETH_ReadPHYRegister)
    ETH_Recive_Poll                          0x08000f69   Thumb Code    24  ethernetif.o(i.ETH_Recive_Poll)
    ETH_RxPkt_ChainMode                      0x08000f85   Thumb Code   148  ethernetif.o(i.ETH_RxPkt_ChainMode)
    ETH_SoftwareReset                        0x08001021   Thumb Code    14  stm32_eth.o(i.ETH_SoftwareReset)
    ETH_Start                                0x08001035   Thumb Code    32  stm32_eth.o(i.ETH_Start)
    ETH_StructInit                           0x08001055   Thumb Code   164  stm32_eth.o(i.ETH_StructInit)
    ETH_TxPkt_ChainMode                      0x080010f9   Thumb Code   152  ethernetif.o(i.ETH_TxPkt_ChainMode)
    ETH_WritePHYRegister                     0x080011ad   Thumb Code    88  stm32_eth.o(i.ETH_WritePHYRegister)
    Ethernet_Configuration                   0x0800120d   Thumb Code   130  stm32f107.o(i.Ethernet_Configuration)
    FS_Write                                 0x08001295   Thumb Code    80  filesystem.o(i.FS_Write)
    FS_Writehtml                             0x0800130d   Thumb Code   254  filesystem.o(i.FS_Writehtml)
    FileSysteWrite                           0x08001439   Thumb Code    44  filesystem.o(i.FileSysteWrite)
    FileSystemClose                          0x08001495   Thumb Code    20  filesystem.o(i.FileSystemClose)
    FileSystemInit                           0x080014a9   Thumb Code    62  filesystem.o(i.FileSystemInit)
    FileSystemThread                         0x08001505   Thumb Code     8  filesystem.o(i.FileSystemThread)
    FindFileString                           0x0800150d   Thumb Code    70  filesystem.o(i.FindFileString)
    GPIO_Configuration                       0x0800155d   Thumb Code   250  stm32f107.o(i.GPIO_Configuration)
    GPIO_ETH_MediaInterfaceConfig            0x08001669   Thumb Code     6  stm32f10x_gpio.o(i.GPIO_ETH_MediaInterfaceConfig)
    GPIO_Init                                0x08001675   Thumb Code   274  stm32f10x_gpio.o(i.GPIO_Init)
    GPIO_PinRemapConfig                      0x08001789   Thumb Code   106  stm32f10x_gpio.o(i.GPIO_PinRemapConfig)
    GPIO_ReadInputDataBit                    0x080017f9   Thumb Code    18  stm32f10x_gpio.o(i.GPIO_ReadInputDataBit)
    GPIO_ResetBits                           0x0800180b   Thumb Code     4  stm32f10x_gpio.o(i.GPIO_ResetBits)
    GPIO_SetBits                             0x0800180f   Thumb Code     4  stm32f10x_gpio.o(i.GPIO_SetBits)
    GetRomAddr                               0x08001815   Thumb Code     4  ds18b20sech.o(i.GetRomAddr)
    HardFault_Handler                        0x0800181d   Thumb Code     8  stm32f10x_it.o(i.HardFault_Handler)
    Http_File_System_Init                    0x08001825   Thumb Code    32  httpd.o(i.Http_File_System_Init)
    InitTIM                                  0x08001855   Thumb Code   154  main.o(i.InitTIM)
    Init_DS18B20_IO                          0x080018f1   Thumb Code    38  ds18b20srom.o(i.Init_DS18B20_IO)
    LwIP_Init                                0x0800191d   Thumb Code    70  netconf.o(i.LwIP_Init)
    LwIP_Periodic_Handle                     0x0800197d   Thumb Code    54  netconf.o(i.LwIP_Periodic_Handle)
    LwIP_Pkt_Handle                          0x080019bd   Thumb Code    10  netconf.o(i.LwIP_Pkt_Handle)
    MemManage_Handler                        0x080019cd   Thumb Code     4  stm32f10x_it.o(i.MemManage_Handler)
    NMI_Handler                              0x080019d1   Thumb Code     2  stm32f10x_it.o(i.NMI_Handler)
    NVIC_Configuration                       0x080019d3   Thumb Code    52  stm32f107.o(i.NVIC_Configuration)
    NVIC_Init                                0x08001a09   Thumb Code   118  misc.o(i.NVIC_Init)
    NVIC_PriorityGroupConfig                 0x08001a8d   Thumb Code    10  misc.o(i.NVIC_PriorityGroupConfig)
    NVIC_SetVectorTable                      0x08001ac9   Thumb Code    12  misc.o(i.NVIC_SetVectorTable)
    OWFirst                                  0x08001add   Thumb Code    22  ds18b20sech.o(i.OWFirst)
    OWReadBit                                0x08001b01   Thumb Code     8  ds18b20sech.o(i.OWReadBit)
    OWReset                                  0x08001b09   Thumb Code     8  ds18b20sech.o(i.OWReset)
    OWSearch                                 0x08001b11   Thumb Code   286  ds18b20sech.o(i.OWSearch)
    OWWriteBit                               0x08001c45   Thumb Code    12  ds18b20sech.o(i.OWWriteBit)
    OWWriteByte                              0x08001c51   Thumb Code    12  ds18b20sech.o(i.OWWriteByte)
    PendSV_Handler                           0x08001c5d   Thumb Code     2  stm32f10x_it.o(i.PendSV_Handler)
    RCC_AHBPeriphClockCmd                    0x08001c61   Thumb Code    26  stm32f10x_rcc.o(i.RCC_AHBPeriphClockCmd)
    RCC_AHBPeriphResetCmd                    0x08001c81   Thumb Code    26  stm32f10x_rcc.o(i.RCC_AHBPeriphResetCmd)
    RCC_APB1PeriphClockCmd                   0x08001ca1   Thumb Code    26  stm32f10x_rcc.o(i.RCC_APB1PeriphClockCmd)
    RCC_APB2PeriphClockCmd                   0x08001cc1   Thumb Code    26  stm32f10x_rcc.o(i.RCC_APB2PeriphClockCmd)
    RCC_GetClocksFreq                        0x08001ce1   Thumb Code   374  stm32f10x_rcc.o(i.RCC_GetClocksFreq)
    RCC_MCOConfig                            0x08001e71   Thumb Code     6  stm32f10x_rcc.o(i.RCC_MCOConfig)
    Read_Eth_Packet                          0x08001e7d   Thumb Code    72  ethernetif.o(i.Read_Eth_Packet)
    SPI_Cmd                                  0x08001ed1   Thumb Code    24  stm32f10x_spi.o(i.SPI_Cmd)
    SPI_I2S_GetFlagStatus                    0x08001f85   Thumb Code    18  stm32f10x_spi.o(i.SPI_I2S_GetFlagStatus)
    SPI_I2S_ReceiveData                      0x08001f97   Thumb Code     6  stm32f10x_spi.o(i.SPI_I2S_ReceiveData)
    SPI_I2S_SendData                         0x08001f9d   Thumb Code     4  stm32f10x_spi.o(i.SPI_I2S_SendData)
    SPI_Init                                 0x08001fa1   Thumb Code    60  stm32f10x_spi.o(i.SPI_Init)
    SVC_Handler                              0x08001fdd   Thumb Code     2  stm32f10x_it.o(i.SVC_Handler)
    SendDataToSever                          0x08001fe1   Thumb Code    10  client_tcpudp.o(i.SendDataToSever)
    Set18b20IOin                             0x08001ff1   Thumb Code    38  ds18b20srom.o(i.Set18b20IOin)
    Set18b20IOout                            0x0800201d   Thumb Code    38  ds18b20srom.o(i.Set18b20IOout)
    Set_MAC_Address                          0x08002169   Thumb Code    40  ethernetif.o(i.Set_MAC_Address)
    SysTick_Handler                          0x08002195   Thumb Code     8  stm32f10x_it.o(i.SysTick_Handler)
    SystemInit                               0x0800219d   Thumb Code    84  system_stm32f10x.o(i.SystemInit)
    System_Setup                             0x080021fd   Thumb Code   118  stm32f107.o(i.System_Setup)
    TIM2_IRQHandler                          0x08002275   Thumb Code    40  main.o(i.TIM2_IRQHandler)
    TIM_ARRPreloadConfig                     0x080022a1   Thumb Code    24  stm32f10x_tim.o(i.TIM_ARRPreloadConfig)
    TIM_ClearFlag                            0x080022b9   Thumb Code     6  stm32f10x_tim.o(i.TIM_ClearFlag)
    TIM_ClearITPendingBit                    0x080022bf   Thumb Code     6  stm32f10x_tim.o(i.TIM_ClearITPendingBit)
    TIM_Cmd                                  0x080022c5   Thumb Code    24  stm32f10x_tim.o(i.TIM_Cmd)
    TIM_GetITStatus                          0x080022dd   Thumb Code    34  stm32f10x_tim.o(i.TIM_GetITStatus)
    TIM_ITConfig                             0x080022ff   Thumb Code    24  stm32f10x_tim.o(i.TIM_ITConfig)
    TIM_SetCounter                           0x08002317   Thumb Code     4  stm32f10x_tim.o(i.TIM_SetCounter)
    TIM_TimeBaseInit                         0x0800231d   Thumb Code    50  stm32f10x_tim.o(i.TIM_TimeBaseInit)
    TcpTestThread                            0x08002359   Thumb Code    68  client_tcpudp.o(i.TcpTestThread)
    Tcp_accept                               0x080023c1   Thumb Code    54  client_tcpudp.o(i.Tcp_accept)
    Tcp_recv                                 0x08002401   Thumb Code    40  client_tcpudp.o(i.Tcp_recv)
    TemperatureThread                        0x08002429   Thumb Code   194  ds18b20srom.o(i.TemperatureThread)
    TftpTrm250ms                             0x08002505   Thumb Code    66  tftpserver.o(i.TftpTrm250ms)
    Time_Update                              0x08002561   Thumb Code     2  main.o(i.Time_Update)
    UDPSendData                              0x08002565   Thumb Code   108  client_tcpudp.o(i.UDPSendData)
    UsageFault_Handler                       0x080025f1   Thumb Code     4  stm32f10x_it.o(i.UsageFault_Handler)
    Write18b20IO                             0x080025f5   Thumb Code    26  ds18b20srom.o(i.Write18b20IO)
    __scatterload_copy                       0x08002615   Thumb Code    14  handlers.o(i.__scatterload_copy)
    __scatterload_null                       0x08002623   Thumb Code     2  handlers.o(i.__scatterload_null)
    __scatterload_zeroinit                   0x08002625   Thumb Code    14  handlers.o(i.__scatterload_zeroinit)
    dir_addCluster                           0x0800268f   Thumb Code   110  dir.o(i.dir_addCluster)
    dir_createDefaultEntry                   0x080026fd   Thumb Code    54  dir.o(i.dir_createDefaultEntry)
    dir_createDirectoryEntry                 0x08002733   Thumb Code    48  dir.o(i.dir_createDirectoryEntry)
    dir_findFileinBuf                        0x08002763   Thumb Code   108  dir.o(i.dir_findFileinBuf)
    dir_findFreeEntryinBuf                   0x080027cf   Thumb Code    72  dir.o(i.dir_findFreeEntryinBuf)
    dir_findinBuf                            0x08002817   Thumb Code    48  dir.o(i.dir_findinBuf)
    dir_findinCluster                        0x08002847   Thumb Code   114  dir.o(i.dir_findinCluster)
    dir_findinDir                            0x080028b9   Thumb Code   106  dir.o(i.dir_findinDir)
    dir_findinRootArea                       0x08002923   Thumb Code   126  dir.o(i.dir_findinRootArea)
    dir_getFatFileName                       0x080029a1   Thumb Code    72  dir.o(i.dir_getFatFileName)
    dir_getFileStructure                     0x080029e9   Thumb Code    48  dir.o(i.dir_getFileStructure)
    dir_setFileSize                          0x08002a19   Thumb Code    42  dir.o(i.dir_setFileSize)
    dir_setFirstCluster                      0x08002a43   Thumb Code    52  dir.o(i.dir_setFirstCluster)
    dir_updateDirectoryEntry                 0x08002a77   Thumb Code    50  dir.o(i.dir_updateDirectoryEntry)
    disc_initDisc                            0x08002aa9   Thumb Code    20  disc.o(i.disc_initDisc)
    disc_loadMBR                             0x08002abd   Thumb Code    60  disc.o(i.disc_loadMBR)
    docrc8                                   0x08002af9   Thumb Code    22  ds18b20sech.o(i.docrc8)
    efs_init                                 0x08002b19   Thumb Code   116  efs.o(i.efs_init)
    etharp_output                            0x08002ec9   Thumb Code   354  etharp.o(i.etharp_output)
    etharp_query                             0x080030bd   Thumb Code   420  etharp.o(i.etharp_query)
    etharp_request                           0x08003359   Thumb Code    36  etharp.o(i.etharp_request)
    etharp_tmr                               0x080033c9   Thumb Code   136  etharp.o(i.etharp_tmr)
    ethernet_input                           0x08003519   Thumb Code   226  etharp.o(i.ethernet_input)
    ethernetif_init                          0x08003605   Thumb Code    72  ethernetif.o(i.ethernetif_init)
    ethernetif_input                         0x0800365d   Thumb Code    44  ethernetif.o(i.ethernetif_input)
    ex_getPartitionField                     0x08003689   Thumb Code    76  extract.o(i.ex_getPartitionField)
    ex_getb16                                0x080036d5   Thumb Code    16  extract.o(i.ex_getb16)
    ex_getb32                                0x080036e5   Thumb Code    30  extract.o(i.ex_getb32)
    fat_DiscToLogicCluster                   0x08003703   Thumb Code    70  fat.o(i.fat_DiscToLogicCluster)
    fat_LogicToDiscCluster                   0x08003749   Thumb Code    92  fat.o(i.fat_LogicToDiscCluster)
    fat_allocClusterChain                    0x080037a5   Thumb Code   316  fat.o(i.fat_allocClusterChain)
    fat_countClustersInChain                 0x080038e1   Thumb Code    56  fat.o(i.fat_countClustersInChain)
    fat_getNextClusterAddress                0x08003919   Thumb Code   188  fat.o(i.fat_getNextClusterAddress)
    fat_getNextClusterAddressWBuf            0x080039d5   Thumb Code   156  fat.o(i.fat_getNextClusterAddressWBuf)
    fat_getNextClusterChain                  0x08003a71   Thumb Code   172  fat.o(i.fat_getNextClusterChain)
    fat_getSectorAddressFatEntry             0x08003b1d   Thumb Code    82  fat.o(i.fat_getSectorAddressFatEntry)
    fat_giveEocMarker                        0x08003b6f   Thumb Code    42  fat.o(i.fat_giveEocMarker)
    fat_isEocMarker                          0x08003b99   Thumb Code    70  fat.o(i.fat_isEocMarker)
    fat_setNextClusterAddress                0x08003be5   Thumb Code   288  fat.o(i.fat_setNextClusterAddress)
    fat_setNextClusterAddressWBuf            0x08003d05   Thumb Code   224  fat.o(i.fat_setNextClusterAddressWBuf)
    file_fclose                              0x08003de5   Thumb Code   104  file.o(i.file_fclose)
    file_fopen                               0x08003e4d   Thumb Code   636  file.o(i.file_fopen)
    file_fread                               0x080040c9   Thumb Code   256  file.o(i.file_fread)
    file_fwrite                              0x080041c9   Thumb Code   328  file.o(i.file_fwrite)
    file_getAttr                             0x08004311   Thumb Code    14  file.o(i.file_getAttr)
    file_initFile                            0x0800431f   Thumb Code    50  file.o(i.file_initFile)
    file_normalToFatName                     0x08004351   Thumb Code   150  file.o(i.file_normalToFatName)
    file_read                                0x080043e7   Thumb Code    36  file.o(i.file_read)
    file_requiredCluster                     0x0800440b   Thumb Code   112  file.o(i.file_requiredCluster)
    file_setAttr                             0x0800447b   Thumb Code    38  file.o(i.file_setAttr)
    file_setpos                              0x080044a1   Thumb Code    20  file.o(i.file_setpos)
    file_validateChar                        0x080044b5   Thumb Code    68  file.o(i.file_validateChar)
    file_write                               0x080044f9   Thumb Code    36  file.o(i.file_write)
    fs_bytes_left                            0x0800451d   Thumb Code    10  fs_lwip.o(i.fs_bytes_left)
    fs_clearCluster                          0x08004527   Thumb Code    70  fs.o(i.fs_clearCluster)
    fs_close                                 0x0800456d   Thumb Code     2  fs_lwip.o(i.fs_close)
    fs_clusterToSector                       0x0800456f   Thumb Code    58  fs.o(i.fs_clusterToSector)
    fs_countDataSectors                      0x080045a9   Thumb Code    88  fs.o(i.fs_countDataSectors)
    fs_determineFatType                      0x08004601   Thumb Code    52  fs.o(i.fs_determineFatType)
    fs_findFile                              0x08004635   Thumb Code   208  fs.o(i.fs_findFile)
    fs_findFirstSectorRootDir                0x08004705   Thumb Code    46  fs.o(i.fs_findFirstSectorRootDir)
    fs_findFreeFile                          0x08004733   Thumb Code   112  fs.o(i.fs_findFreeFile)
    fs_flushFs                               0x080047a3   Thumb Code    16  fs.o(i.fs_flushFs)
    fs_getFirstClusterRootDir                0x080047b3   Thumb Code    18  fs.o(i.fs_getFirstClusterRootDir)
    fs_getLastCluster                        0x080047c5   Thumb Code    60  fs.o(i.fs_getLastCluster)
    fs_getNextFreeCluster                    0x08004801   Thumb Code    38  fs.o(i.fs_getNextFreeCluster)
    fs_giveFreeClusterHint                   0x08004827   Thumb Code     6  fs.o(i.fs_giveFreeClusterHint)
    fs_hasTimeSupport                        0x0800482d   Thumb Code     4  time.o(i.fs_hasTimeSupport)
    fs_initClusterChain                      0x08004831   Thumb Code    16  fs.o(i.fs_initClusterChain)
    fs_initCurrentDir                        0x08004841   Thumb Code    14  fs.o(i.fs_initCurrentDir)
    fs_initFs                                0x0800484f   Thumb Code    72  fs.o(i.fs_initFs)
    fs_isValidFat                            0x08004897   Thumb Code    50  fs.o(i.fs_isValidFat)
    fs_loadVolumeId                          0x080048c9   Thumb Code   116  fs.o(i.fs_loadVolumeId)
    fs_open                                  0x0800493d   Thumb Code    64  fs_lwip.o(i.fs_open)
    fs_setFirstClusterInDirEntry             0x08004981   Thumb Code     8  fs.o(i.fs_setFirstClusterInDirEntry)
    fs_umount                                0x08004989   Thumb Code    12  fs.o(i.fs_umount)
    fs_verifySanity                          0x08004995   Thumb Code   178  fs.o(i.fs_verifySanity)
    get_spi_BaudRatePrescaler                0x08004a47   Thumb Code     6  sd.o(i.get_spi_BaudRatePrescaler)
    httpd_init                               0x080051d9   Thumb Code    10  httpd.o(i.httpd_init)
    icmp_dest_unreach                        0x08005249   Thumb Code    18  icmp.o(i.icmp_dest_unreach)
    icmp_input                               0x0800525d   Thumb Code   530  icmp.o(i.icmp_input)
    icmp_time_exceeded                       0x0800550d   Thumb Code    18  icmp.o(i.icmp_time_exceeded)
    if_initInterface                         0x0800551f   Thumb Code    76  sd_stm32.o(i.if_initInterface)
    if_readBuf                               0x0800556b   Thumb Code    24  sd_stm32.o(i.if_readBuf)
    if_spiInit                               0x08005585   Thumb Code    40  sd_stm32.o(i.if_spiInit)
    if_spiSend                               0x080055b1   Thumb Code    74  sd_stm32.o(i.if_spiSend)
    if_writeBuf                              0x08005605   Thumb Code    20  sd_stm32.o(i.if_writeBuf)
    inet_chksum                              0x08005619   Thumb Code    20  inet_chksum.o(i.inet_chksum)
    inet_chksum_pbuf                         0x0800562d   Thumb Code    86  inet_chksum.o(i.inet_chksum_pbuf)
    inet_chksum_pseudo                       0x08005683   Thumb Code   164  inet_chksum.o(i.inet_chksum_pseudo)
    ioman_decUseCnt                          0x08005727   Thumb Code    42  ioman.o(i.ioman_decUseCnt)
    ioman_directSectorRead                   0x08005751   Thumb Code   134  ioman.o(i.ioman_directSectorRead)
    ioman_directSectorWrite                  0x080057d7   Thumb Code   168  ioman.o(i.ioman_directSectorWrite)
    ioman_findFreeSpot                       0x0800587f   Thumb Code    40  ioman.o(i.ioman_findFreeSpot)
    ioman_findOverallocableSpot              0x080058a7   Thumb Code   116  ioman.o(i.ioman_findOverallocableSpot)
    ioman_findSectorInCache                  0x0800591b   Thumb Code    54  ioman.o(i.ioman_findSectorInCache)
    ioman_findUnusedSpot                     0x08005951   Thumb Code   142  ioman.o(i.ioman_findUnusedSpot)
    ioman_flushRange                         0x080059df   Thumb Code   110  ioman.o(i.ioman_flushRange)
    ioman_flushSector                        0x08005a4d   Thumb Code    96  ioman.o(i.ioman_flushSector)
    ioman_getAttr                            0x08005aad   Thumb Code    32  ioman.o(i.ioman_getAttr)
    ioman_getBp                              0x08005acd   Thumb Code    46  ioman.o(i.ioman_getBp)
    ioman_getBuffer                          0x08005afb   Thumb Code     8  ioman.o(i.ioman_getBuffer)
    ioman_getPtr                             0x08005b03   Thumb Code    24  ioman.o(i.ioman_getPtr)
    ioman_getRefCnt                          0x08005b1b   Thumb Code    24  ioman.o(i.ioman_getRefCnt)
    ioman_getSector                          0x08005b33   Thumb Code   324  ioman.o(i.ioman_getSector)
    ioman_getUseCnt                          0x08005c77   Thumb Code    24  ioman.o(i.ioman_getUseCnt)
    ioman_incRefCnt                          0x08005c8f   Thumb Code    44  ioman.o(i.ioman_incRefCnt)
    ioman_incUseCnt                          0x08005cbb   Thumb Code    44  ioman.o(i.ioman_incUseCnt)
    ioman_init                               0x08005ce7   Thumb Code    36  ioman.o(i.ioman_init)
    ioman_pop                                0x08005d0b   Thumb Code   128  ioman.o(i.ioman_pop)
    ioman_push                               0x08005d8b   Thumb Code   120  ioman.o(i.ioman_push)
    ioman_putSectorInCache                   0x08005e03   Thumb Code    76  ioman.o(i.ioman_putSectorInCache)
    ioman_readSector                         0x08005e4f   Thumb Code    46  ioman.o(i.ioman_readSector)
    ioman_releaseSector                      0x08005e7d   Thumb Code    90  ioman.o(i.ioman_releaseSector)
    ioman_reset                              0x08005ed7   Thumb Code   122  ioman.o(i.ioman_reset)
    ioman_resetCacheItem                     0x08005f51   Thumb Code    38  ioman.o(i.ioman_resetCacheItem)
    ioman_setAttr                            0x08005f77   Thumb Code    62  ioman.o(i.ioman_setAttr)
    ioman_writeSector                        0x08005fb5   Thumb Code    48  ioman.o(i.ioman_writeSector)
    ip4_addr_isbroadcast                     0x08005fe5   Thumb Code    78  ip_addr.o(i.ip4_addr_isbroadcast)
    ip_frag                                  0x08006035   Thumb Code   448  ip_frag.o(i.ip_frag)
    ip_input                                 0x08006221   Thumb Code   544  ip.o(i.ip_input)
    ip_output                                0x08006459   Thumb Code    82  ip.o(i.ip_output)
    ip_output_if                             0x080064b1   Thumb Code   312  ip.o(i.ip_output_if)
    ip_reass                                 0x080065f1   Thumb Code   448  ip_frag.o(i.ip_reass)
    ip_route                                 0x08006b45   Thumb Code    92  ip.o(i.ip_route)
    ls_openDir                               0x08006ce9   Thumb Code    68  ls.o(i.ls_openDir)
    lwip_htonl                               0x08006d2d   Thumb Code    26  def.o(i.lwip_htonl)
    lwip_htons                               0x08006d47   Thumb Code    12  def.o(i.lwip_htons)
    lwip_ntohl                               0x08006d53   Thumb Code    12  def.o(i.lwip_ntohl)
    lwip_ntohs                               0x08006d5f   Thumb Code    12  def.o(i.lwip_ntohs)
    main                                     0x08006dc9   Thumb Code    80  main.o(i.main)
    memClr                                   0x08006e1d   Thumb Code    18  plibc.o(i.memClr)
    memCpy                                   0x08006e2f   Thumb Code    24  plibc.o(i.memCpy)
    mem_free                                 0x08006e49   Thumb Code   148  mem.o(i.mem_free)
    mem_init                                 0x08006eed   Thumb Code    84  mem.o(i.mem_init)
    mem_malloc                               0x08006f55   Thumb Code   396  mem.o(i.mem_malloc)
    mem_trim                                 0x080070f1   Thumb Code   386  mem.o(i.mem_trim)
    memp_free                                0x08007285   Thumb Code    82  memp.o(i.memp_free)
    memp_init                                0x080072e5   Thumb Code   136  memp.o(i.memp_init)
    memp_malloc                              0x08007381   Thumb Code   184  memp.o(i.memp_malloc)
    netbios_init                             0x08007471   Thumb Code    46  netbios.o(i.netbios_init)
    netif_add                                0x08007611   Thumb Code   106  netif.o(i.netif_add)
    netif_set_addr                           0x08007685   Thumb Code    40  netif.o(i.netif_set_addr)
    netif_set_default                        0x080076ad   Thumb Code     6  netif.o(i.netif_set_default)
    netif_set_gw                             0x080076b9   Thumb Code    12  netif.o(i.netif_set_gw)
    netif_set_ipaddr                         0x080076c5   Thumb Code   110  netif.o(i.netif_set_ipaddr)
    netif_set_netmask                        0x0800773d   Thumb Code    12  netif.o(i.netif_set_netmask)
    netif_set_up                             0x08007749   Thumb Code    54  netif.o(i.netif_set_up)
    part_directSectorRead                    0x0800777f   Thumb Code    36  partition.o(i.part_directSectorRead)
    part_directSectorWrite                   0x080077a3   Thumb Code    36  partition.o(i.part_directSectorWrite)
    part_flushPart                           0x080077c7   Thumb Code    46  partition.o(i.part_flushPart)
    part_getRealLBA                          0x080077f5   Thumb Code    20  partition.o(i.part_getRealLBA)
    part_getSect                             0x08007809   Thumb Code    36  partition.o(i.part_getSect)
    part_initPartition                       0x0800782d   Thumb Code    46  partition.o(i.part_initPartition)
    part_isFatPart                           0x0800785b   Thumb Code    38  partition.o(i.part_isFatPart)
    part_relSect                             0x08007881   Thumb Code    18  partition.o(i.part_relSect)
    pbuf_alloc                               0x08007893   Thumb Code   522  pbuf.o(i.pbuf_alloc)
    pbuf_alloced_custom                      0x08007a9d   Thumb Code   112  pbuf.o(i.pbuf_alloced_custom)
    pbuf_cat                                 0x08007b0d   Thumb Code    80  pbuf.o(i.pbuf_cat)
    pbuf_chain                               0x08007b5d   Thumb Code    22  pbuf.o(i.pbuf_chain)
    pbuf_clen                                0x08007b73   Thumb Code    18  pbuf.o(i.pbuf_clen)
    pbuf_copy                                0x08007b85   Thumb Code   228  pbuf.o(i.pbuf_copy)
    pbuf_copy_partial                        0x08007c69   Thumb Code   154  pbuf.o(i.pbuf_copy_partial)
    pbuf_free                                0x08007d03   Thumb Code   186  pbuf.o(i.pbuf_free)
    pbuf_header                              0x08007dbd   Thumb Code   140  pbuf.o(i.pbuf_header)
    pbuf_realloc                             0x08007e49   Thumb Code   176  pbuf.o(i.pbuf_realloc)
    pbuf_ref                                 0x08007ef9   Thumb Code    10  pbuf.o(i.pbuf_ref)
    process_tftp_request                     0x08007fb9   Thumb Code   378  tftpserver.o(i.process_tftp_request)
    raw_input                                0x08008165   Thumb Code   102  raw.o(i.raw_input)
    recv_callback_tftp                       0x080081d9   Thumb Code    34  tftpserver.o(i.recv_callback_tftp)
    rrq_recv_callback                        0x080081fd   Thumb Code   102  tftpserver.o(i.rrq_recv_callback)
    sd_Command                               0x0800826d   Thumb Code    82  sd.o(i.sd_Command)
    sd_Command_crc                           0x080082bf   Thumb Code   132  sd.o(i.sd_Command_crc)
    sd_Init                                  0x08008345   Thumb Code   628  sd.o(i.sd_Init)
    sd_Resp16b                               0x080085bd   Thumb Code    32  sd.o(i.sd_Resp16b)
    sd_Resp8b                                0x080085dd   Thumb Code    38  sd.o(i.sd_Resp8b)
    sd_Resp8bError                           0x08008603   Thumb Code    52  sd.o(i.sd_Resp8bError)
    sd_State                                 0x08008637   Thumb Code   112  sd.o(i.sd_State)
    sd_getDriveSize                          0x080086a9   Thumb Code   310  sd.o(i.sd_getDriveSize)
    sd_readSector                            0x080087fd   Thumb Code   162  sd.o(i.sd_readSector)
    sd_writeSector                           0x080088a5   Thumb Code   128  sd.o(i.sd_writeSector)
    strMatch                                 0x08008929   Thumb Code    32  plibc.o(i.strMatch)
    tcp_abandon                              0x08008995   Thumb Code   146  tcp.o(i.tcp_abandon)
    tcp_abort                                0x08008a35   Thumb Code    14  tcp.o(i.tcp_abort)
    tcp_accept                               0x08008a43   Thumb Code     4  tcp.o(i.tcp_accept)
    tcp_alloc                                0x08008a51   Thumb Code   260  tcp.o(i.tcp_alloc)
    tcp_arg                                  0x08008b69   Thumb Code     4  tcp.o(i.tcp_arg)
    tcp_bind                                 0x08008b6d   Thumb Code   146  tcp.o(i.tcp_bind)
    tcp_client_callback                      0x08008c09   Thumb Code    78  client_tcpudp.o(i.tcp_client_callback)
    tcp_client_connected                     0x08008c71   Thumb Code    72  client_tcpudp.o(i.tcp_client_connected)
    tcp_client_err                           0x08008cd1   Thumb Code    38  client_tcpudp.o(i.tcp_client_err)
    tcp_client_reciver                       0x08008cfd   Thumb Code   532  client_tcpudp.o(i.tcp_client_reciver)
    tcp_close                                0x08008f69   Thumb Code    28  tcp.o(i.tcp_close)
    tcp_connect                              0x08009159   Thumb Code   326  tcp.o(i.tcp_connect)
    tcp_eff_send_mss                         0x08009375   Thumb Code    46  tcp.o(i.tcp_eff_send_mss)
    tcp_enqueue_flags                        0x080093a5   Thumb Code   392  tcp_out.o(i.tcp_enqueue_flags)
    tcp_err                                  0x08009531   Thumb Code    20  tcp.o(i.tcp_err)
    tcp_fasttmr                              0x08009545   Thumb Code   118  tcp.o(i.tcp_fasttmr)
    tcp_input                                0x080095c9   Thumb Code  1360  tcp_in.o(i.tcp_input)
    tcp_keepalive                            0x08009b45   Thumb Code   100  tcp_out.o(i.tcp_keepalive)
    tcp_listen_with_backlog                  0x08009d81   Thumb Code   202  tcp.o(i.tcp_listen_with_backlog)
    tcp_new                                  0x08009e5d   Thumb Code    10  tcp.o(i.tcp_new)
    tcp_next_iss                             0x08009ed1   Thumb Code    20  tcp.o(i.tcp_next_iss)
    tcp_output                               0x08009eed   Thumb Code   464  tcp_out.o(i.tcp_output)
    tcp_pcb_purge                            0x0800a371   Thumb Code    64  tcp.o(i.tcp_pcb_purge)
    tcp_pcb_remove                           0x0800a3b1   Thumb Code   156  tcp.o(i.tcp_pcb_remove)
    tcp_poll                                 0x0800a451   Thumb Code    24  tcp.o(i.tcp_poll)
    tcp_process_refused_data                 0x0800aa0d   Thumb Code   140  tcp.o(i.tcp_process_refused_data)
    tcp_recv                                 0x0800b171   Thumb Code    18  tcp.o(i.tcp_recv)
    tcp_recv_null                            0x0800b183   Thumb Code    46  tcp.o(i.tcp_recv_null)
    tcp_recved                               0x0800b1b1   Thumb Code    96  tcp.o(i.tcp_recved)
    tcp_rexmit                               0x0800b211   Thumb Code    90  tcp_out.o(i.tcp_rexmit)
    tcp_rexmit_fast                          0x0800b26b   Thumb Code   112  tcp_out.o(i.tcp_rexmit_fast)
    tcp_rexmit_rto                           0x0800b2db   Thumb Code    58  tcp_out.o(i.tcp_rexmit_rto)
    tcp_rst                                  0x0800b315   Thumb Code   166  tcp_out.o(i.tcp_rst)
    tcp_seg_free                             0x0800b3c1   Thumb Code    26  tcp.o(i.tcp_seg_free)
    tcp_segs_free                            0x0800b3db   Thumb Code    24  tcp.o(i.tcp_segs_free)
    tcp_send_empty_ack                       0x0800b3f3   Thumb Code    96  tcp_out.o(i.tcp_send_empty_ack)
    tcp_send_fin                             0x0800b453   Thumb Code    74  tcp_out.o(i.tcp_send_fin)
    tcp_sent                                 0x0800b49d   Thumb Code    18  tcp.o(i.tcp_sent)
    tcp_setprio                              0x0800b4af   Thumb Code     4  tcp.o(i.tcp_setprio)
    tcp_sever_test                           0x0800b4b5   Thumb Code    46  client_tcpudp.o(i.tcp_sever_test)
    tcp_slowtmr                              0x0800b4ed   Thumb Code   880  tcp.o(i.tcp_slowtmr)
    tcp_timer_needed                         0x0800b879   Thumb Code     2  timers.o(i.tcp_timer_needed)
    tcp_tmr                                  0x0800b929   Thumb Code    30  tcp.o(i.tcp_tmr)
    tcp_update_rcv_ann_wnd                   0x0800b94d   Thumb Code    88  tcp.o(i.tcp_update_rcv_ann_wnd)
    tcp_write                                0x0800b9a5   Thumb Code  1022  tcp_out.o(i.tcp_write)
    tcp_zero_window_probe                    0x0800be45   Thumb Code   200  tcp_out.o(i.tcp_zero_window_probe)
    tftp_cleanup_rd                          0x0800bf11   Thumb Code    50  tftpserver.o(i.tftp_cleanup_rd)
    tftp_cleanup_wr                          0x0800bf55   Thumb Code    50  tftpserver.o(i.tftp_cleanup_wr)
    tftp_construct_error_message             0x0800bf99   Thumb Code    50  tftpserver.o(i.tftp_construct_error_message)
    tftp_decode_op                           0x0800bfd1   Thumb Code     6  tftputils.o(i.tftp_decode_op)
    tftp_extract_block                       0x0800bfd7   Thumb Code    14  tftputils.o(i.tftp_extract_block)
    tftp_extract_filename                    0x0800bfe5   Thumb Code    16  tftputils.o(i.tftp_extract_filename)
    tftp_is_correct_ack                      0x0800bff5   Thumb Code    38  tftputils.o(i.tftp_is_correct_ack)
    tftp_process_read                        0x0800c01d   Thumb Code   156  tftpserver.o(i.tftp_process_read)
    tftp_process_write                       0x0800c0d1   Thumb Code   142  tftpserver.o(i.tftp_process_write)
    tftp_send_ack_packet                     0x0800c16d   Thumb Code    48  tftpserver.o(i.tftp_send_ack_packet)
    tftp_send_data_packet                    0x0800c19d   Thumb Code    72  tftpserver.o(i.tftp_send_data_packet)
    tftp_send_error_message                  0x0800c1e5   Thumb Code    50  tftpserver.o(i.tftp_send_error_message)
    tftp_send_message                        0x0800c217   Thumb Code    74  tftpserver.o(i.tftp_send_message)
    tftp_send_next_block                     0x0800c261   Thumb Code    56  tftpserver.o(i.tftp_send_next_block)
    tftp_set_block                           0x0800c29d   Thumb Code    18  tftputils.o(i.tftp_set_block)
    tftp_set_data_message                    0x0800c2af   Thumb Code    20  tftputils.o(i.tftp_set_data_message)
    tftp_set_errorcode                       0x0800c2c3   Thumb Code     8  tftputils.o(i.tftp_set_errorcode)
    tftp_set_errormsg                        0x0800c2cb   Thumb Code    16  tftputils.o(i.tftp_set_errormsg)
    tftp_set_opcode                          0x0800c2db   Thumb Code     8  tftputils.o(i.tftp_set_opcode)
    tftpd_init                               0x0800c2e5   Thumb Code    54  tftpserver.o(i.tftpd_init)
    udp_bind                                 0x0800c329   Thumb Code   132  udp.o(i.udp_bind)
    udp_client_callback                      0x0800c3b1   Thumb Code    82  client_tcpudp.o(i.udp_client_callback)
    udp_client_callback_app                  0x0800c40d   Thumb Code    50  client_tcpudp.o(i.udp_client_callback_app)
    udp_disconnect                           0x0800c44d   Thumb Code    16  udp.o(i.udp_disconnect)
    udp_input                                0x0800c45d   Thumb Code   580  udp.o(i.udp_input)
    udp_new                                  0x0800c6b1   Thumb Code    28  udp.o(i.udp_new)
    udp_recv                                 0x0800c725   Thumb Code     6  udp.o(i.udp_recv)
    udp_remove                               0x0800c72d   Thumb Code    60  udp.o(i.udp_remove)
    udp_sendto                               0x0800c76d   Thumb Code    62  udp.o(i.udp_sendto)
    udp_sendto_if                            0x0800c7b1   Thumb Code   270  udp.o(i.udp_sendto_if)
    wrq_recv_callback                        0x0800c8c5   Thumb Code   200  tftpserver.o(i.wrq_recv_callback)
    tcp_state_str                            0x0800c9b4   Data          44  tcp.o(.constdata)
    tcp_backoff                              0x0800c9e0   Data          13  tcp.o(.constdata)
    tcp_persist_backoff                      0x0800c9ed   Data           7  tcp.o(.constdata)
    tcp_pcb_lists                            0x0800c9f4   Data          16  tcp.o(.constdata)
    ip_addr_any                              0x0800ca04   Data           4  ip_addr.o(.constdata)
    ip_addr_broadcast                        0x0800ca08   Data           4  ip_addr.o(.constdata)
    ethbroadcast                             0x0800ca0c   Data           6  etharp.o(.constdata)
    ethzero                                  0x0800ca12   Data           6  etharp.o(.constdata)
    file__img_sics_gif                       0x08013480   Data          20  fs_lwip.o(.constdata)
    file__404_html                           0x08013494   Data          20  fs_lwip.o(.constdata)
    file__index_html                         0x080134a8   Data          20  fs_lwip.o(.constdata)
    Region$$Table$$Base                      0x080135b8   Number         0  anon$$obj.o(Region$$Table)
    Region$$Table$$Limit                     0x080135d8   Number         0  anon$$obj.o(Region$$Table)
    LocalTime                                0x20000000   Data           4  main.o(.data)
    timingdelay                              0x20000004   Data           4  main.o(.data)
    TCPTimer                                 0x20000008   Data           4  netconf.o(.data)
    ARPTimer                                 0x2000000c   Data           4  netconf.o(.data)
    DHCPfineTimer                            0x20000010   Data           4  netconf.o(.data)
    DHCPcoarseTimer                          0x20000014   Data           4  netconf.o(.data)
    DisplayTimer                             0x2000001c   Data           4  netconf.o(.data)
    LedToggle                                0x20000020   Data           1  netconf.o(.data)
    Server                                   0x20000021   Data           1  netconf.o(.data)
    macaddress                               0x20000022   Data           6  netconf.o(.data)
    Tcplink                                  0x20000028   Data           1  client_tcpudp.o(.data)
    Udplink                                  0x20000029   Data           1  client_tcpudp.o(.data)
    retry_TCP_connect                        0x2000002c   Data           4  client_tcpudp.o(.data)
    SystemRunTime                            0x20000030   Data           4  client_tcpudp.o(.data)
    TCPCreatTrm                              0x20000034   Data           4  client_tcpudp.o(.data)
    cansent                                  0x20000038   Data           1  client_tcpudp.o(.data)
    num                                      0x20000039   Data           1  client_tcpudp.o(.data)
    num1                                     0x2000003a   Data           1  client_tcpudp.o(.data)
    TCPSentCreatTrm                          0x2000003c   Data           4  client_tcpudp.o(.data)
    Udpbf                                    0x20000040   Data        1024  client_tcpudp.o(.data)
    UDPSentCreatTrm                          0x20000440   Data           4  client_tcpudp.o(.data)
    wpcb                                     0x20000444   Data           4  client_tcpudp.o(.data)
    upcb                                     0x20000448   Data           4  client_tcpudp.o(.data)
    strA                                     0x20000454   Data          15  filesystem.o(.data)
    strB                                     0x20000463   Data          15  filesystem.o(.data)
    tftp_errorcode_string                    0x2000047c   Data          32  tftpserver.o(.data)
    tftptimeoutTimer                         0x2000049c   Data           1  tftpserver.o(.data)
    tftptimeout                              0x2000049d   Data           1  tftpserver.o(.data)
    Timeoutargs                              0x200004a0   Data           4  tftpserver.o(.data)
    Timeoutupcb                              0x200004a4   Data           4  tftpserver.o(.data)
    Timeoutaddr                              0x200004a8   Data           4  tftpserver.o(.data)
    Timeoutport                              0x200004ac   Data           2  tftpserver.o(.data)
    Timeoutportpkt_buf                       0x200004b0   Data           4  tftpserver.o(.data)
    UDPpcb                                   0x200004b4   Data           4  tftpserver.o(.data)
    time_run                                 0x200004bc   Data           4  ds18b20srom.o(.data)
    TempCreatTrm                             0x200004c0   Data           4  ds18b20srom.o(.data)
    Day                                      0x200004c4   Data           2  ds18b20srom.o(.data)
    Assic                                    0x200004c6   Data           6  ds18b20srom.o(.data)
    ROM_NO                                   0x200005d0   Data           8  ds18b20sech.o(.data)
    LastDiscrepancy                          0x200005d8   Data           4  ds18b20sech.o(.data)
    LastFamilyDiscrepancy                    0x200005dc   Data           4  ds18b20sech.o(.data)
    LastDeviceFlag                           0x200005e0   Data           4  ds18b20sech.o(.data)
    crc8                                     0x200005e4   Data           1  ds18b20sech.o(.data)
    DMATxDescToSet                           0x200005fc   Data           4  stm32_eth.o(.data)
    DMARxDescToGet                           0x20000600   Data           4  stm32_eth.o(.data)
    DMAPTPTxDescToSet                        0x20000604   Data           4  stm32_eth.o(.data)
    DMAPTPRxDescToGet                        0x20000608   Data           4  stm32_eth.o(.data)
    mf                                       0x20000618   Data           4  memp.o(.data)
    netif_list                               0x2000061c   Data           4  netif.o(.data)
    netif_default                            0x20000620   Data           4  netif.o(.data)
    tcp_ticks                                0x20000634   Data           4  tcp.o(.data)
    tcp_bound_pcbs                           0x20000638   Data           4  tcp.o(.data)
    tcp_listen_pcbs                          0x2000063c   Data           4  tcp.o(.data)
    tcp_active_pcbs                          0x20000640   Data           4  tcp.o(.data)
    tcp_tw_pcbs                              0x20000644   Data           4  tcp.o(.data)
    tcp_tmp_pcb                              0x20000648   Data           4  tcp.o(.data)
    tcp_active_pcbs_changed                  0x2000064c   Data           1  tcp.o(.data)
    tcp_input_pcb                            0x2000066c   Data           4  tcp_in.o(.data)
    udp_pcbs                                 0x20000674   Data           4  udp.o(.data)
    current_netif                            0x20000678   Data           4  ip.o(.data)
    current_header                           0x2000067c   Data           4  ip.o(.data)
    current_iphdr_src                        0x20000680   Data           4  ip.o(.data)
    current_iphdr_dest                       0x20000684   Data           4  ip.o(.data)
    DMATxDesc                                0x20000694   Data           4  ethernetif.o(.data)
    tcp_end_time                             0x20000698   Data           4  ethernetif.o(.data)
    arp_end_time                             0x2000069c   Data           4  ethernetif.o(.data)
    MACaddr                                  0x200006a0   Data           6  ethernetif.o(.data)
    SDcard                                   0x200006a8   Data           1  sd.o(.data)
    max_clock                                0x200006ac   Data           4  sd.o(.data)
    netif                                    0x200006b0   Data          52  netconf.o(.bss)
    Udpbuf                                   0x200006e4   Data          10  client_tcpudp.o(.bss)
    myefs1                                   0x20000700   Data         692  filesystem.o(.bss)
    myefs2                                   0x200009b4   Data         692  filesystem.o(.bss)
    mylist1                                  0x20000c68   Data          52  filesystem.o(.bss)
    mylist2                                  0x20000c9c   Data          52  filesystem.o(.bss)
    myfile_SD                                0x20000cd0   Data          80  filesystem.o(.bss)
    myfile_CR                                0x20000d20   Data          80  filesystem.o(.bss)
    fsbufer                                  0x20000d70   Data        1024  filesystem.o(.bss)
    filebuf                                  0x20001170   Data         512  filesystem.o(.bss)
    efs1                                     0x20001370   Data         692  tftpserver.o(.bss)
    efs2                                     0x20001624   Data         692  tftpserver.o(.bss)
    list1                                    0x200018d8   Data          52  tftpserver.o(.bss)
    list2                                    0x2000190c   Data          52  tftpserver.o(.bss)
    file_SD                                  0x20001940   Data          80  tftpserver.o(.bss)
    file_CR                                  0x20001990   Data          80  tftpserver.o(.bss)
    temp                                     0x200019e0   Data          33  ds18b20srom.o(.bss)
    ID_Buff                                  0x20001a01   Data          16  ds18b20srom.o(.bss)
    ram_heap                                 0x20001a11   Data        6164  mem.o(.bss)
    lwip_stats                               0x20009ab4   Data         268  stats.o(.bss)
    DMARxDscrTab                             0x20009c98   Data          64  ethernetif.o(.bss)
    DMATxDscrTab                             0x20009cd8   Data          32  ethernetif.o(.bss)
    Rx_Buff                                  0x20009cf8   Data        6080  ethernetif.o(.bss)
    Tx_Buff                                  0x2000b4b8   Data        3040  ethernetif.o(.bss)
    Eth_Buff                                 0x2000c098   Data        1500  ethernetif.o(.bss)
    frameds                                  0x2000c674   Data          12  ethernetif.o(.bss)
    myefs3                                   0x2000ca80   Data         692  httpd.o(.bss)
    mylist3                                  0x2000cd34   Data          52  httpd.o(.bss)
    Httpfile_CR                              0x2000cd68   Data          80  httpd.o(.bss)
    __initial_sp                             0x2000ddb8   Data           0  startup_stm32f10x_cl.o(STACK)



==============================================================================

Memory Map of the image

  Image Entry point : 0x08000151

  Load Region LR_IROM1 (Base: 0x08000000, Size: 0x00013c88, Max: 0x00040000, ABSOLUTE, COMPRESSED[0x00013744])

    Execution Region ER_IROM1 (Base: 0x08000000, Size: 0x000135d8, Max: 0x00040000, ABSOLUTE)

    Base Addr    Size         Type   Attr      Idx    E Section Name        Object

    0x08000000   0x00000150   Data   RO         5952    RESET               startup_stm32f10x_cl.o
    0x08000150   0x00000000   Code   RO         7211  * .ARM.Collect$$$$00000000  mc_w.l(entry.o)(mc_w.l)
    0x08000150   0x00000004   Code   RO         7240    .ARM.Collect$$$$00000001  mc_w.l(entry2.o)(mc_w.l)
    0x08000154   0x00000004   Code   RO         7243    .ARM.Collect$$$$00000004  mc_w.l(entry5.o)(mc_w.l)
    0x08000158   0x00000008   Code   RO         7244    .ARM.Collect$$$$00000007  mc_w.l(entry7.o)(mc_w.l)
    0x08000160   0x00000004   Code   RO         7241    .ARM.Collect$$$$00002712  mc_w.l(entry2.o)(mc_w.l)
    0x08000164   0x00000002   Code   RO          263    .emb_text           stm32f10x_it.o
    0x08000166   0x00000002   PAD
    0x08000168   0x0000001c   Code   RO         5953    .text               startup_stm32f10x_cl.o
    0x08000184   0x00000024   Code   RO         7214    .text               mc_w.l(memcpya.o)(mc_w.l)
    0x080001a8   0x00000026   Code   RO         7216    .text               mc_w.l(memseta.o)(mc_w.l)
    0x080001ce   0x0000002c   Code   RO         7218    .text               mc_w.l(strstr.o)(mc_w.l)
    0x080001fa   0x00000012   Code   RO         7220    .text               mc_w.l(strchr.o)(mc_w.l)
    0x0800020c   0x00000010   Code   RO         7222    .text               mc_w.l(strlen.o)(mc_w.l)
    0x0800021c   0x0000001c   Code   RO         7224    .text               mc_w.l(strcmp.o)(mc_w.l)
    0x08000238   0x0000001a   Code   RO         7226    .text               mc_w.l(memcmp.o)(mc_w.l)
    0x08000252   0x00000012   Code   RO         7228    .text               mc_w.l(strcpy.o)(mc_w.l)
    0x08000264   0x0000001e   Code   RO         7230    .text               mc_w.l(strncmp.o)(mc_w.l)
    0x08000282   0x000000e2   Code   RO         7234    .text               mf_w.l(dmul.o)(mf_w.l)
    0x08000364   0x00000022   Code   RO         7236    .text               mf_w.l(dflti.o)(mf_w.l)
    0x08000386   0x0000003e   Code   RO         7238    .text               mf_w.l(dfixi.o)(mf_w.l)
    0x080003c4   0x00000020   Code   RO         7245    .text               mc_w.l(llushr.o)(mc_w.l)
    0x080003e4   0x00000000   Code   RO         7247    .text               mc_w.l(iusefp.o)(mc_w.l)
    0x080003e4   0x000000c2   Code   RO         7248    .text               mf_w.l(depilogue.o)(mf_w.l)
    0x080004a6   0x00000002   PAD
    0x080004a8   0x00000024   Code   RO         7250    .text               mc_w.l(init.o)(mc_w.l)
    0x080004cc   0x0000001e   Code   RO         7252    .text               mc_w.l(llshl.o)(mc_w.l)
    0x080004ea   0x0000005c   Code   RO         7262    .text               mc_w.l(__dczerorl2.o)(mc_w.l)
    0x08000546   0x00000004   Code   RO          264    i.BusFault_Handler  stm32f10x_it.o
    0x0800054a   0x00000002   PAD
    0x0800054c   0x000002e4   Code   RO          804    i.DS1820main        ds18b20srom.o
    0x08000830   0x00000040   Code   RO          913    i.DS18B20_ReadBit   ds18b20srom.o
    0x08000870   0x00000024   Code   RO          806    i.DS18B20_ReadData  ds18b20srom.o
    0x08000894   0x00000090   Code   RO          807    i.DS18B20_ReadDesignateTemper  ds18b20srom.o
    0x08000924   0x00000064   Code   RO          809    i.DS18B20_Reset     ds18b20srom.o
    0x08000988   0x00000030   Code   RO          811    i.DS18B20_WriteBit  ds18b20srom.o
    0x080009b8   0x0000001e   Code   RO          812    i.DS18B20_WriteData  ds18b20srom.o
    0x080009d6   0x00000002   Code   RO          265    i.DebugMon_Handler  stm32f10x_it.o
    0x080009d8   0x00000034   Code   RO          813    i.Delay_init        ds18b20srom.o
    0x08000a0c   0x00000034   Code   RO          815    i.Delay_us          ds18b20srom.o
    0x08000a40   0x0000000c   Code   RO         3897    i.ETH_DMAClearITPendingBit  stm32_eth.o
    0x08000a4c   0x00000020   Code   RO         3898    i.ETH_DMAITConfig   stm32_eth.o
    0x08000a6c   0x00000024   Code   RO         3901    i.ETH_DMAReceptionCmd  stm32_eth.o
    0x08000a90   0x00000054   Code   RO         3902    i.ETH_DMARxDescChainInit  stm32_eth.o
    0x08000ae4   0x00000016   Code   RO         3904    i.ETH_DMARxDescReceiveITConfig  stm32_eth.o
    0x08000afa   0x00000002   PAD
    0x08000afc   0x00000024   Code   RO         3907    i.ETH_DMATransmissionCmd  stm32_eth.o
    0x08000b20   0x00000050   Code   RO         3910    i.ETH_DMATxDescChainInit  stm32_eth.o
    0x08000b70   0x00000016   Code   RO         3919    i.ETH_DeInit        stm32_eth.o
    0x08000b86   0x0000000e   Code   RO         3920    i.ETH_Delay         stm32_eth.o
    0x08000b94   0x00000014   Code   RO         3925    i.ETH_FlushTransmitFIFO  stm32_eth.o
    0x08000ba8   0x0000000c   Code   RO         5838    i.ETH_GetCurrentTxBuffer  ethernetif.o
    0x08000bb4   0x0000000a   Code   RO         3936    i.ETH_GetDMARxDescFrameLength  stm32_eth.o
    0x08000bbe   0x00000002   PAD
    0x08000bc0   0x00000048   Code   RO         3951    i.ETH_GetRxPktSize  stm32_eth.o
    0x08000c08   0x00000018   Code   RO         3952    i.ETH_GetSoftwareResetStatus  stm32_eth.o
    0x08000c20   0x00000020   Code   RO          266    i.ETH_IRQHandler    stm32f10x_it.o
    0x08000c40   0x0000024c   Code   RO         3959    i.ETH_Init          stm32_eth.o
    0x08000e8c   0x00000034   Code   RO         3962    i.ETH_MACAddressConfig  stm32_eth.o
    0x08000ec0   0x00000024   Code   RO         3967    i.ETH_MACReceptionCmd  stm32_eth.o
    0x08000ee4   0x00000024   Code   RO         3968    i.ETH_MACTransmissionCmd  stm32_eth.o
    0x08000f08   0x00000060   Code   RO         3979    i.ETH_ReadPHYRegister  stm32_eth.o
    0x08000f68   0x0000001c   Code   RO         5839    i.ETH_Recive_Poll   ethernetif.o
    0x08000f84   0x0000009c   Code   RO         5840    i.ETH_RxPkt_ChainMode  ethernetif.o
    0x08001020   0x00000014   Code   RO         3990    i.ETH_SoftwareReset  stm32_eth.o
    0x08001034   0x00000020   Code   RO         3991    i.ETH_Start         stm32_eth.o
    0x08001054   0x000000a4   Code   RO         3992    i.ETH_StructInit    stm32_eth.o
    0x080010f8   0x000000b4   Code   RO         5841    i.ETH_TxPkt_ChainMode  ethernetif.o
    0x080011ac   0x00000060   Code   RO         3994    i.ETH_WritePHYRegister  stm32_eth.o
    0x0800120c   0x00000088   Code   RO          338    i.Ethernet_Configuration  stm32f107.o
    0x08001294   0x00000078   Code   RO          496    i.FS_Write          filesystem.o
    0x0800130c   0x0000012c   Code   RO          497    i.FS_Writehtml      filesystem.o
    0x08001438   0x0000005c   Code   RO          499    i.FileSysteWrite    filesystem.o
    0x08001494   0x00000014   Code   RO          500    i.FileSystemClose   filesystem.o
    0x080014a8   0x0000005c   Code   RO          502    i.FileSystemInit    filesystem.o
    0x08001504   0x00000008   Code   RO          503    i.FileSystemThread  filesystem.o
    0x0800150c   0x00000050   Code   RO          504    i.FindFileString    filesystem.o
    0x0800155c   0x0000010c   Code   RO          339    i.GPIO_Configuration  stm32f107.o
    0x08001668   0x0000000c   Code   RO         2024    i.GPIO_ETH_MediaInterfaceConfig  stm32f10x_gpio.o
    0x08001674   0x00000112   Code   RO         2028    i.GPIO_Init         stm32f10x_gpio.o
    0x08001786   0x00000002   PAD
    0x08001788   0x00000070   Code   RO         2030    i.GPIO_PinRemapConfig  stm32f10x_gpio.o
    0x080017f8   0x00000012   Code   RO         2032    i.GPIO_ReadInputDataBit  stm32f10x_gpio.o
    0x0800180a   0x00000004   Code   RO         2035    i.GPIO_ResetBits    stm32f10x_gpio.o
    0x0800180e   0x00000004   Code   RO         2036    i.GPIO_SetBits      stm32f10x_gpio.o
    0x08001812   0x00000002   PAD
    0x08001814   0x00000008   Code   RO          923    i.GetRomAddr        ds18b20sech.o
    0x0800181c   0x00000008   Code   RO          267    i.HardFault_Handler  stm32f10x_it.o
    0x08001824   0x00000030   Code   RO         7036    i.Http_File_System_Init  httpd.o
    0x08001854   0x0000009a   Code   RO            2    i.InitTIM           main.o
    0x080018ee   0x00000002   PAD
    0x080018f0   0x0000002c   Code   RO          816    i.Init_DS18B20_IO   ds18b20srom.o
    0x0800191c   0x00000060   Code   RO          163    i.LwIP_Init         netconf.o
    0x0800197c   0x00000040   Code   RO          164    i.LwIP_Periodic_Handle  netconf.o
    0x080019bc   0x00000010   Code   RO          165    i.LwIP_Pkt_Handle   netconf.o
    0x080019cc   0x00000004   Code   RO          268    i.MemManage_Handler  stm32f10x_it.o
    0x080019d0   0x00000002   Code   RO          269    i.NMI_Handler       stm32f10x_it.o
    0x080019d2   0x00000034   Code   RO          340    i.NVIC_Configuration  stm32f107.o
    0x08001a06   0x00000002   PAD
    0x08001a08   0x00000084   Code   RO         1007    i.NVIC_Init         misc.o
    0x08001a8c   0x00000014   Code   RO         1008    i.NVIC_PriorityGroupConfig  misc.o
    0x08001aa0   0x00000028   Code   RO          341    i.NVIC_SetPriority  stm32f107.o
    0x08001ac8   0x00000014   Code   RO         1009    i.NVIC_SetVectorTable  misc.o
    0x08001adc   0x00000024   Code   RO          925    i.OWFirst           ds18b20sech.o
    0x08001b00   0x00000008   Code   RO          927    i.OWReadBit         ds18b20sech.o
    0x08001b08   0x00000008   Code   RO          928    i.OWReset           ds18b20sech.o
    0x08001b10   0x00000134   Code   RO          929    i.OWSearch          ds18b20sech.o
    0x08001c44   0x0000000c   Code   RO          932    i.OWWriteBit        ds18b20sech.o
    0x08001c50   0x0000000c   Code   RO          933    i.OWWriteByte       ds18b20sech.o
    0x08001c5c   0x00000002   Code   RO          270    i.PendSV_Handler    stm32f10x_it.o
    0x08001c5e   0x00000002   PAD
    0x08001c60   0x00000020   Code   RO         2443    i.RCC_AHBPeriphClockCmd  stm32f10x_rcc.o
    0x08001c80   0x00000020   Code   RO         2444    i.RCC_AHBPeriphResetCmd  stm32f10x_rcc.o
    0x08001ca0   0x00000020   Code   RO         2445    i.RCC_APB1PeriphClockCmd  stm32f10x_rcc.o
    0x08001cc0   0x00000020   Code   RO         2447    i.RCC_APB2PeriphClockCmd  stm32f10x_rcc.o
    0x08001ce0   0x00000190   Code   RO         2455    i.RCC_GetClocksFreq  stm32f10x_rcc.o
    0x08001e70   0x0000000c   Code   RO         2467    i.RCC_MCOConfig     stm32f10x_rcc.o
    0x08001e7c   0x00000054   Code   RO         5842    i.Read_Eth_Packet   ethernetif.o
    0x08001ed0   0x00000018   Code   RO         2983    i.SPI_Cmd           stm32f10x_spi.o
    0x08001ee8   0x0000009c   Code   RO         6981    i.SPI_Config        sd_stm32.o
    0x08001f84   0x00000012   Code   RO         2991    i.SPI_I2S_GetFlagStatus  stm32f10x_spi.o
    0x08001f96   0x00000006   Code   RO         2994    i.SPI_I2S_ReceiveData  stm32f10x_spi.o
    0x08001f9c   0x00000004   Code   RO         2995    i.SPI_I2S_SendData  stm32f10x_spi.o
    0x08001fa0   0x0000003c   Code   RO         2996    i.SPI_Init          stm32f10x_spi.o
    0x08001fdc   0x00000002   Code   RO          271    i.SVC_Handler       stm32f10x_it.o
    0x08001fde   0x00000002   PAD
    0x08001fe0   0x00000010   Code   RO          381    i.SendDataToSever   client_tcpudp.o
    0x08001ff0   0x0000002c   Code   RO          817    i.Set18b20IOin      ds18b20srom.o
    0x0800201c   0x0000002c   Code   RO          818    i.Set18b20IOout     ds18b20srom.o
    0x08002048   0x00000008   Code   RO         5922    i.SetSysClock       system_stm32f10x.o
    0x08002050   0x00000118   Code   RO         5923    i.SetSysClockTo72   system_stm32f10x.o
    0x08002168   0x0000002c   Code   RO         5843    i.Set_MAC_Address   ethernetif.o
    0x08002194   0x00000008   Code   RO          272    i.SysTick_Handler   stm32f10x_it.o
    0x0800219c   0x00000060   Code   RO         5924    i.SystemInit        system_stm32f10x.o
    0x080021fc   0x00000076   Code   RO          342    i.System_Setup      stm32f107.o
    0x08002272   0x00000002   PAD
    0x08002274   0x0000002c   Code   RO            3    i.TIM2_IRQHandler   main.o
    0x080022a0   0x00000018   Code   RO         3126    i.TIM_ARRPreloadConfig  stm32f10x_tim.o
    0x080022b8   0x00000006   Code   RO         3132    i.TIM_ClearFlag     stm32f10x_tim.o
    0x080022be   0x00000006   Code   RO         3133    i.TIM_ClearITPendingBit  stm32f10x_tim.o
    0x080022c4   0x00000018   Code   RO         3138    i.TIM_Cmd           stm32f10x_tim.o
    0x080022dc   0x00000022   Code   RO         3159    i.TIM_GetITStatus   stm32f10x_tim.o
    0x080022fe   0x00000018   Code   RO         3163    i.TIM_ITConfig      stm32f10x_tim.o
    0x08002316   0x00000004   Code   RO         3203    i.TIM_SetCounter    stm32f10x_tim.o
    0x0800231a   0x00000002   PAD
    0x0800231c   0x0000003c   Code   RO         3209    i.TIM_TimeBaseInit  stm32f10x_tim.o
    0x08002358   0x00000068   Code   RO          382    i.TcpTestThread     client_tcpudp.o
    0x080023c0   0x00000040   Code   RO          383    i.Tcp_accept        client_tcpudp.o
    0x08002400   0x00000028   Code   RO          384    i.Tcp_recv          client_tcpudp.o
    0x08002428   0x000000dc   Code   RO          819    i.TemperatureThread  ds18b20srom.o
    0x08002504   0x0000005c   Code   RO          609    i.TftpTrm250ms      tftpserver.o
    0x08002560   0x00000002   Code   RO            4    i.Time_Update       main.o
    0x08002562   0x00000002   PAD
    0x08002564   0x0000008c   Code   RO          385    i.UDPSendData       client_tcpudp.o
    0x080025f0   0x00000004   Code   RO          273    i.UsageFault_Handler  stm32f10x_it.o
    0x080025f4   0x00000020   Code   RO          820    i.Write18b20IO      ds18b20srom.o
    0x08002614   0x0000000e   Code   RO         7256    i.__scatterload_copy  mc_w.l(handlers.o)(mc_w.l)
    0x08002622   0x00000002   Code   RO         7257    i.__scatterload_null  mc_w.l(handlers.o)(mc_w.l)
    0x08002624   0x0000000e   Code   RO         7258    i.__scatterload_zeroinit  mc_w.l(handlers.o)(mc_w.l)
    0x08002632   0x00000002   Code   RO          386    i.conn_err          client_tcpudp.o
    0x08002634   0x0000005a   Code   RO         6875    i.crc7              sd.o
    0x0800268e   0x0000006e   Code   RO         5957    i.dir_addCluster    dir.o
    0x080026fc   0x00000036   Code   RO         5958    i.dir_createDefaultEntry  dir.o
    0x08002732   0x00000030   Code   RO         5959    i.dir_createDirectoryEntry  dir.o
    0x08002762   0x0000006c   Code   RO         5960    i.dir_findFileinBuf  dir.o
    0x080027ce   0x00000048   Code   RO         5961    i.dir_findFreeEntryinBuf  dir.o
    0x08002816   0x00000030   Code   RO         5962    i.dir_findinBuf     dir.o
    0x08002846   0x00000072   Code   RO         5963    i.dir_findinCluster  dir.o
    0x080028b8   0x0000006a   Code   RO         5964    i.dir_findinDir     dir.o
    0x08002922   0x0000007e   Code   RO         5965    i.dir_findinRootArea  dir.o
    0x080029a0   0x00000048   Code   RO         5966    i.dir_getFatFileName  dir.o
    0x080029e8   0x00000030   Code   RO         5967    i.dir_getFileStructure  dir.o
    0x08002a18   0x0000002a   Code   RO         5968    i.dir_setFileSize   dir.o
    0x08002a42   0x00000034   Code   RO         5969    i.dir_setFirstCluster  dir.o
    0x08002a76   0x00000032   Code   RO         5970    i.dir_updateDirectoryEntry  dir.o
    0x08002aa8   0x00000014   Code   RO         6050    i.disc_initDisc     disc.o
    0x08002abc   0x0000003c   Code   RO         6051    i.disc_loadMBR      disc.o
    0x08002af8   0x00000020   Code   RO          934    i.docrc8            ds18b20sech.o
    0x08002b18   0x00000074   Code   RO         6071    i.efs_init          efs.o
    0x08002b8c   0x00000160   Code   RO         5747    i.etharp_arp_input  etharp.o
    0x08002cec   0x0000019c   Code   RO         5750    i.etharp_find_entry  etharp.o
    0x08002e88   0x00000040   Code   RO         5751    i.etharp_free_entry  etharp.o
    0x08002ec8   0x00000174   Code   RO         5752    i.etharp_output     etharp.o
    0x0800303c   0x00000080   Code   RO         5753    i.etharp_output_to_arp_index  etharp.o
    0x080030bc   0x000001b0   Code   RO         5754    i.etharp_query      etharp.o
    0x0800326c   0x000000ec   Code   RO         5755    i.etharp_raw        etharp.o
    0x08003358   0x0000002c   Code   RO         5756    i.etharp_request    etharp.o
    0x08003384   0x00000044   Code   RO         5757    i.etharp_send_ip    etharp.o
    0x080033c8   0x0000008c   Code   RO         5758    i.etharp_tmr        etharp.o
    0x08003454   0x000000c4   Code   RO         5759    i.etharp_update_arp_entry  etharp.o
    0x08003518   0x000000ec   Code   RO         5760    i.ethernet_input    etharp.o
    0x08003604   0x00000058   Code   RO         5844    i.ethernetif_init   ethernetif.o
    0x0800365c   0x0000002c   Code   RO         5845    i.ethernetif_input  ethernetif.o
    0x08003688   0x0000004c   Code   RO         6086    i.ex_getPartitionField  extract.o
    0x080036d4   0x00000010   Code   RO         6087    i.ex_getb16         extract.o
    0x080036e4   0x0000001e   Code   RO         6088    i.ex_getb32         extract.o
    0x08003702   0x00000046   Code   RO         6128    i.fat_DiscToLogicCluster  fat.o
    0x08003748   0x0000005c   Code   RO         6129    i.fat_LogicToDiscCluster  fat.o
    0x080037a4   0x0000013c   Code   RO         6130    i.fat_allocClusterChain  fat.o
    0x080038e0   0x00000038   Code   RO         6131    i.fat_countClustersInChain  fat.o
    0x08003918   0x000000bc   Code   RO         6133    i.fat_getNextClusterAddress  fat.o
    0x080039d4   0x0000009c   Code   RO         6134    i.fat_getNextClusterAddressWBuf  fat.o
    0x08003a70   0x000000ac   Code   RO         6135    i.fat_getNextClusterChain  fat.o
    0x08003b1c   0x00000052   Code   RO         6136    i.fat_getSectorAddressFatEntry  fat.o
    0x08003b6e   0x0000002a   Code   RO         6137    i.fat_giveEocMarker  fat.o
    0x08003b98   0x0000004c   Code   RO         6138    i.fat_isEocMarker   fat.o
    0x08003be4   0x00000120   Code   RO         6139    i.fat_setNextClusterAddress  fat.o
    0x08003d04   0x000000e0   Code   RO         6140    i.fat_setNextClusterAddressWBuf  fat.o
    0x08003de4   0x00000068   Code   RO         6221    i.file_fclose       file.o
    0x08003e4c   0x0000027c   Code   RO         6222    i.file_fopen        file.o
    0x080040c8   0x00000100   Code   RO         6223    i.file_fread        file.o
    0x080041c8   0x00000148   Code   RO         6224    i.file_fwrite       file.o
    0x08004310   0x0000000e   Code   RO         6225    i.file_getAttr      file.o
    0x0800431e   0x00000032   Code   RO         6226    i.file_initFile     file.o
    0x08004350   0x00000096   Code   RO         6227    i.file_normalToFatName  file.o
    0x080043e6   0x00000024   Code   RO         6228    i.file_read         file.o
    0x0800440a   0x00000070   Code   RO         6229    i.file_requiredCluster  file.o
    0x0800447a   0x00000026   Code   RO         6230    i.file_setAttr      file.o
    0x080044a0   0x00000014   Code   RO         6231    i.file_setpos       file.o
    0x080044b4   0x00000044   Code   RO         6232    i.file_validateChar  file.o
    0x080044f8   0x00000024   Code   RO         6233    i.file_write        file.o
    0x0800451c   0x0000000a   Code   RO         7178    i.fs_bytes_left     fs_lwip.o
    0x08004526   0x00000046   Code   RO         6305    i.fs_clearCluster   fs.o
    0x0800456c   0x00000002   Code   RO         7179    i.fs_close          fs_lwip.o
    0x0800456e   0x0000003a   Code   RO         6306    i.fs_clusterToSector  fs.o
    0x080045a8   0x00000058   Code   RO         6307    i.fs_countDataSectors  fs.o
    0x08004600   0x00000034   Code   RO         6308    i.fs_determineFatType  fs.o
    0x08004634   0x000000d0   Code   RO         6309    i.fs_findFile       fs.o
    0x08004704   0x0000002e   Code   RO         6310    i.fs_findFirstSectorRootDir  fs.o
    0x08004732   0x00000070   Code   RO         6311    i.fs_findFreeFile   fs.o
    0x080047a2   0x00000010   Code   RO         6312    i.fs_flushFs        fs.o
    0x080047b2   0x00000012   Code   RO         6313    i.fs_getFirstClusterRootDir  fs.o
    0x080047c4   0x0000003c   Code   RO         6315    i.fs_getLastCluster  fs.o
    0x08004800   0x00000026   Code   RO         6316    i.fs_getNextFreeCluster  fs.o
    0x08004826   0x00000006   Code   RO         6317    i.fs_giveFreeClusterHint  fs.o
    0x0800482c   0x00000004   Code   RO         6827    i.fs_hasTimeSupport  time.o
    0x08004830   0x00000010   Code   RO         6318    i.fs_initClusterChain  fs.o
    0x08004840   0x0000000e   Code   RO         6319    i.fs_initCurrentDir  fs.o
    0x0800484e   0x00000048   Code   RO         6320    i.fs_initFs         fs.o
    0x08004896   0x00000032   Code   RO         6321    i.fs_isValidFat     fs.o
    0x080048c8   0x00000074   Code   RO         6322    i.fs_loadVolumeId   fs.o
    0x0800493c   0x00000044   Code   RO         7180    i.fs_open           fs_lwip.o
    0x08004980   0x00000008   Code   RO         6324    i.fs_setFirstClusterInDirEntry  fs.o
    0x08004988   0x0000000c   Code   RO         6326    i.fs_umount         fs.o
    0x08004994   0x000000b2   Code   RO         6327    i.fs_verifySanity   fs.o
    0x08004a46   0x00000006   Code   RO         6876    i.get_spi_BaudRatePrescaler  sd.o
    0x08004a4c   0x0000008c   Code   RO         7037    i.http_accept       httpd.o
    0x08004ad8   0x0000003a   Code   RO         7038    i.http_check_eof    httpd.o
    0x08004b12   0x00000012   Code   RO         7039    i.http_close_conn   httpd.o
    0x08004b24   0x00000068   Code   RO         7040    i.http_close_or_abort_conn  httpd.o
    0x08004b8c   0x00000010   Code   RO         7041    i.http_eof          httpd.o
    0x08004b9c   0x00000012   Code   RO         7042    i.http_err          httpd.o
    0x08004bae   0x00000002   PAD
    0x08004bb0   0x000000d8   Code   RO         7043    i.http_find_file    httpd.o
    0x08004c88   0x00000064   Code   RO         7044    i.http_get_404_file  httpd.o
    0x08004cec   0x00000084   Code   RO         7045    i.http_init_file    httpd.o
    0x08004d70   0x00000164   Code   RO         7046    i.http_parse_request  httpd.o
    0x08004ed4   0x00000052   Code   RO         7047    i.http_poll         httpd.o
    0x08004f26   0x000000a2   Code   RO         7048    i.http_recv         httpd.o
    0x08004fc8   0x00000048   Code   RO         7049    i.http_send         httpd.o
    0x08005010   0x0000006a   Code   RO         7050    i.http_send_data_nonssi  httpd.o
    0x0800507a   0x00000026   Code   RO         7051    i.http_sent         httpd.o
    0x080050a0   0x00000016   Code   RO         7052    i.http_state_alloc  httpd.o
    0x080050b6   0x00000022   Code   RO         7053    i.http_state_eof    httpd.o
    0x080050d8   0x00000014   Code   RO         7054    i.http_state_free   httpd.o
    0x080050ec   0x0000000e   Code   RO         7055    i.http_state_init   httpd.o
    0x080050fa   0x00000002   PAD
    0x080050fc   0x000000dc   Code   RO         7056    i.http_write        httpd.o
    0x080051d8   0x00000010   Code   RO         7057    i.httpd_init        httpd.o
    0x080051e8   0x00000060   Code   RO         7058    i.httpd_init_addr   httpd.o
    0x08005248   0x00000012   Code   RO         5452    i.icmp_dest_unreach  icmp.o
    0x0800525a   0x00000002   PAD
    0x0800525c   0x00000220   Code   RO         5453    i.icmp_input        icmp.o
    0x0800547c   0x00000090   Code   RO         5454    i.icmp_send_response  icmp.o
    0x0800550c   0x00000012   Code   RO         5455    i.icmp_time_exceeded  icmp.o
    0x0800551e   0x0000004c   Code   RO         6982    i.if_initInterface  sd_stm32.o
    0x0800556a   0x00000018   Code   RO         6983    i.if_readBuf        sd_stm32.o
    0x08005582   0x00000002   PAD
    0x08005584   0x0000002c   Code   RO         6985    i.if_spiInit        sd_stm32.o
    0x080055b0   0x00000054   Code   RO         6986    i.if_spiSend        sd_stm32.o
    0x08005604   0x00000014   Code   RO         6987    i.if_writeBuf       sd_stm32.o
    0x08005618   0x00000014   Code   RO         5497    i.inet_chksum       inet_chksum.o
    0x0800562c   0x00000056   Code   RO         5498    i.inet_chksum_pbuf  inet_chksum.o
    0x08005682   0x000000a4   Code   RO         5499    i.inet_chksum_pseudo  inet_chksum.o
    0x08005726   0x0000002a   Code   RO         6450    i.ioman_decUseCnt   ioman.o
    0x08005750   0x00000086   Code   RO         6451    i.ioman_directSectorRead  ioman.o
    0x080057d6   0x000000a8   Code   RO         6452    i.ioman_directSectorWrite  ioman.o
    0x0800587e   0x00000028   Code   RO         6453    i.ioman_findFreeSpot  ioman.o
    0x080058a6   0x00000074   Code   RO         6454    i.ioman_findOverallocableSpot  ioman.o
    0x0800591a   0x00000036   Code   RO         6455    i.ioman_findSectorInCache  ioman.o
    0x08005950   0x0000008e   Code   RO         6456    i.ioman_findUnusedSpot  ioman.o
    0x080059de   0x0000006e   Code   RO         6458    i.ioman_flushRange  ioman.o
    0x08005a4c   0x00000060   Code   RO         6459    i.ioman_flushSector  ioman.o
    0x08005aac   0x00000020   Code   RO         6460    i.ioman_getAttr     ioman.o
    0x08005acc   0x0000002e   Code   RO         6461    i.ioman_getBp       ioman.o
    0x08005afa   0x00000008   Code   RO         6462    i.ioman_getBuffer   ioman.o
    0x08005b02   0x00000018   Code   RO         6463    i.ioman_getPtr      ioman.o
    0x08005b1a   0x00000018   Code   RO         6464    i.ioman_getRefCnt   ioman.o
    0x08005b32   0x00000144   Code   RO         6465    i.ioman_getSector   ioman.o
    0x08005c76   0x00000018   Code   RO         6466    i.ioman_getUseCnt   ioman.o
    0x08005c8e   0x0000002c   Code   RO         6467    i.ioman_incRefCnt   ioman.o
    0x08005cba   0x0000002c   Code   RO         6468    i.ioman_incUseCnt   ioman.o
    0x08005ce6   0x00000024   Code   RO         6469    i.ioman_init        ioman.o
    0x08005d0a   0x00000080   Code   RO         6470    i.ioman_pop         ioman.o
    0x08005d8a   0x00000078   Code   RO         6472    i.ioman_push        ioman.o
    0x08005e02   0x0000004c   Code   RO         6473    i.ioman_putSectorInCache  ioman.o
    0x08005e4e   0x0000002e   Code   RO         6474    i.ioman_readSector  ioman.o
    0x08005e7c   0x0000005a   Code   RO         6475    i.ioman_releaseSector  ioman.o
    0x08005ed6   0x0000007a   Code   RO         6476    i.ioman_reset       ioman.o
    0x08005f50   0x00000026   Code   RO         6477    i.ioman_resetCacheItem  ioman.o
    0x08005f76   0x0000003e   Code   RO         6480    i.ioman_setAttr     ioman.o
    0x08005fb4   0x00000030   Code   RO         6481    i.ioman_writeSector  ioman.o
    0x08005fe4   0x0000004e   Code   RO         5577    i.ip4_addr_isbroadcast  ip_addr.o
    0x08006032   0x00000002   PAD
    0x08006034   0x000001c8   Code   RO         5630    i.ip_frag           ip_frag.o
    0x080061fc   0x0000000a   Code   RO         5631    i.ip_frag_alloc_pbuf_custom_ref  ip_frag.o
    0x08006206   0x00000018   Code   RO         5632    i.ip_frag_free_pbuf_custom_ref  ip_frag.o
    0x0800621e   0x00000002   PAD
    0x08006220   0x00000238   Code   RO         5538    i.ip_input          ip.o
    0x08006458   0x00000058   Code   RO         5539    i.ip_output         ip.o
    0x080064b0   0x00000140   Code   RO         5540    i.ip_output_if      ip.o
    0x080065f0   0x000001cc   Code   RO         5633    i.ip_reass          ip_frag.o
    0x080067bc   0x0000019c   Code   RO         5634    i.ip_reass_chain_frag_into_datagram_and_validate  ip_frag.o
    0x08006958   0x00000034   Code   RO         5635    i.ip_reass_dequeue_datagram  ip_frag.o
    0x0800698c   0x00000064   Code   RO         5636    i.ip_reass_enqueue_new_datagram  ip_frag.o
    0x080069f0   0x000000d8   Code   RO         5637    i.ip_reass_free_complete_datagram  ip_frag.o
    0x08006ac8   0x0000007c   Code   RO         5638    i.ip_reass_remove_oldest_datagram  ip_frag.o
    0x08006b44   0x00000068   Code   RO         5541    i.ip_route          ip.o
    0x08006bac   0x0000002e   Code   RO         5640    i.ipfrag_free_pbuf_custom  ip_frag.o
    0x08006bda   0x00000002   PAD
    0x08006bdc   0x0000008c   Code   RO         5846    i.low_level_init    ethernetif.o
    0x08006c68   0x0000004c   Code   RO         5847    i.low_level_input   ethernetif.o
    0x08006cb4   0x00000034   Code   RO         5848    i.low_level_output  ethernetif.o
    0x08006ce8   0x00000044   Code   RO         6662    i.ls_openDir        ls.o
    0x08006d2c   0x0000001a   Code   RO         4503    i.lwip_htonl        def.o
    0x08006d46   0x0000000c   Code   RO         4504    i.lwip_htons        def.o
    0x08006d52   0x0000000c   Code   RO         4505    i.lwip_ntohl        def.o
    0x08006d5e   0x0000000c   Code   RO         4506    i.lwip_ntohs        def.o
    0x08006d6a   0x0000005e   Code   RO         5501    i.lwip_standard_chksum  inet_chksum.o
    0x08006dc8   0x00000054   Code   RO            5    i.main              main.o
    0x08006e1c   0x00000012   Code   RO         6791    i.memClr            plibc.o
    0x08006e2e   0x00000018   Code   RO         6792    i.memCpy            plibc.o
    0x08006e46   0x00000002   PAD
    0x08006e48   0x000000a4   Code   RO         4598    i.mem_free          mem.o
    0x08006eec   0x00000068   Code   RO         4599    i.mem_init          mem.o
    0x08006f54   0x0000019c   Code   RO         4600    i.mem_malloc        mem.o
    0x080070f0   0x00000194   Code   RO         4601    i.mem_trim          mem.o
    0x08007284   0x00000060   Code   RO         4642    i.memp_free         memp.o
    0x080072e4   0x0000009c   Code   RO         4643    i.memp_init         memp.o
    0x08007380   0x000000c4   Code   RO         4644    i.memp_malloc       memp.o
    0x08007444   0x0000002c   Code   RO         6988    i.my_if_spiSend     sd_stm32.o
    0x08007470   0x00000038   Code   RO          587    i.netbios_init      netbios.o
    0x080074a8   0x00000080   Code   RO          588    i.netbios_name_decoding  netbios.o
    0x08007528   0x000000e8   Code   RO          589    i.netbios_recv      netbios.o
    0x08007610   0x00000074   Code   RO         4686    i.netif_add         netif.o
    0x08007684   0x00000028   Code   RO         4690    i.netif_set_addr    netif.o
    0x080076ac   0x0000000c   Code   RO         4691    i.netif_set_default  netif.o
    0x080076b8   0x0000000c   Code   RO         4693    i.netif_set_gw      netif.o
    0x080076c4   0x00000078   Code   RO         4694    i.netif_set_ipaddr  netif.o
    0x0800773c   0x0000000c   Code   RO         4697    i.netif_set_netmask  netif.o
    0x08007748   0x00000036   Code   RO         4698    i.netif_set_up      netif.o
    0x0800777e   0x00000024   Code   RO         6722    i.part_directSectorRead  partition.o
    0x080077a2   0x00000024   Code   RO         6723    i.part_directSectorWrite  partition.o
    0x080077c6   0x0000002e   Code   RO         6724    i.part_flushPart    partition.o
    0x080077f4   0x00000014   Code   RO         6725    i.part_getRealLBA   partition.o
    0x08007808   0x00000024   Code   RO         6726    i.part_getSect      partition.o
    0x0800782c   0x0000002e   Code   RO         6727    i.part_initPartition  partition.o
    0x0800785a   0x00000026   Code   RO         6728    i.part_isFatPart    partition.o
    0x08007880   0x00000012   Code   RO         6730    i.part_relSect      partition.o
    0x08007892   0x0000020a   Code   RO         4783    i.pbuf_alloc        pbuf.o
    0x08007a9c   0x00000070   Code   RO         4784    i.pbuf_alloced_custom  pbuf.o
    0x08007b0c   0x00000050   Code   RO         4785    i.pbuf_cat          pbuf.o
    0x08007b5c   0x00000016   Code   RO         4786    i.pbuf_chain        pbuf.o
    0x08007b72   0x00000012   Code   RO         4787    i.pbuf_clen         pbuf.o
    0x08007b84   0x000000e4   Code   RO         4789    i.pbuf_copy         pbuf.o
    0x08007c68   0x0000009a   Code   RO         4790    i.pbuf_copy_partial  pbuf.o
    0x08007d02   0x000000ba   Code   RO         4792    i.pbuf_free         pbuf.o
    0x08007dbc   0x0000008c   Code   RO         4794    i.pbuf_header       pbuf.o
    0x08007e48   0x000000b0   Code   RO         4797    i.pbuf_realloc      pbuf.o
    0x08007ef8   0x0000000a   Code   RO         4798    i.pbuf_ref          pbuf.o
    0x08007f02   0x00000002   PAD
    0x08007f04   0x000000b4   Code   RO         4602    i.plug_holes        mem.o
    0x08007fb8   0x000001ac   Code   RO          610    i.process_tftp_request  tftpserver.o
    0x08008164   0x00000074   Code   RO         4902    i.raw_input         raw.o
    0x080081d8   0x00000022   Code   RO          611    i.recv_callback_tftp  tftpserver.o
    0x080081fa   0x00000002   PAD
    0x080081fc   0x00000070   Code   RO          612    i.rrq_recv_callback  tftpserver.o
    0x0800826c   0x00000052   Code   RO         6877    i.sd_Command        sd.o
    0x080082be   0x00000084   Code   RO         6878    i.sd_Command_crc    sd.o
    0x08008342   0x00000002   PAD
    0x08008344   0x00000278   Code   RO         6879    i.sd_Init           sd.o
    0x080085bc   0x00000020   Code   RO         6880    i.sd_Resp16b        sd.o
    0x080085dc   0x00000026   Code   RO         6881    i.sd_Resp8b         sd.o
    0x08008602   0x00000034   Code   RO         6882    i.sd_Resp8bError    sd.o
    0x08008636   0x00000070   Code   RO         6883    i.sd_State          sd.o
    0x080086a6   0x00000002   PAD
    0x080086a8   0x00000154   Code   RO         6884    i.sd_getDriveSize   sd.o
    0x080087fc   0x000000a8   Code   RO         6885    i.sd_readSector     sd.o
    0x080088a4   0x00000084   Code   RO         6886    i.sd_writeSector    sd.o
    0x08008928   0x00000020   Code   RO         6794    i.strMatch          plibc.o
    0x08008948   0x0000004a   Code   RO         7059    i.strnstr           httpd.o
    0x08008992   0x00000002   PAD
    0x08008994   0x000000a0   Code   RO         4981    i.tcp_abandon       tcp.o
    0x08008a34   0x0000000e   Code   RO         4982    i.tcp_abort         tcp.o
    0x08008a42   0x00000004   Code   RO         4983    i.tcp_accept        tcp.o
    0x08008a46   0x00000008   Code   RO         4984    i.tcp_accept_null   tcp.o
    0x08008a4e   0x00000002   PAD
    0x08008a50   0x00000118   Code   RO         4985    i.tcp_alloc         tcp.o
    0x08008b68   0x00000004   Code   RO         4986    i.tcp_arg           tcp.o
    0x08008b6c   0x0000009c   Code   RO         4987    i.tcp_bind          tcp.o
    0x08008c08   0x00000068   Code   RO          387    i.tcp_client_callback  client_tcpudp.o
    0x08008c70   0x00000060   Code   RO          388    i.tcp_client_connected  client_tcpudp.o
    0x08008cd0   0x0000002c   Code   RO          389    i.tcp_client_err    client_tcpudp.o
    0x08008cfc   0x0000026c   Code   RO          391    i.tcp_client_reciver  client_tcpudp.o
    0x08008f68   0x0000001c   Code   RO         4988    i.tcp_close         tcp.o
    0x08008f84   0x000001d4   Code   RO         4989    i.tcp_close_shutdown  tcp.o
    0x08009158   0x00000158   Code   RO         4990    i.tcp_connect       tcp.o
    0x080092b0   0x000000c4   Code   RO         5266    i.tcp_create_segment  tcp_out.o
    0x08009374   0x0000002e   Code   RO         4992    i.tcp_eff_send_mss  tcp.o
    0x080093a2   0x00000002   PAD
    0x080093a4   0x0000018c   Code   RO         5267    i.tcp_enqueue_flags  tcp_out.o
    0x08009530   0x00000014   Code   RO         4993    i.tcp_err           tcp.o
    0x08009544   0x00000084   Code   RO         4994    i.tcp_fasttmr       tcp.o
    0x080095c8   0x0000057c   Code   RO         5215    i.tcp_input         tcp_in.o
    0x08009b44   0x00000068   Code   RO         5268    i.tcp_keepalive     tcp_out.o
    0x08009bac   0x00000054   Code   RO         4996    i.tcp_kill_prio     tcp.o
    0x08009c00   0x0000003c   Code   RO         4997    i.tcp_kill_timewait  tcp.o
    0x08009c3c   0x00000144   Code   RO         5216    i.tcp_listen_input  tcp_in.o
    0x08009d80   0x000000dc   Code   RO         4998    i.tcp_listen_with_backlog  tcp.o
    0x08009e5c   0x0000000a   Code   RO         4999    i.tcp_new           tcp.o
    0x08009e66   0x00000002   PAD
    0x08009e68   0x00000068   Code   RO         5000    i.tcp_new_port      tcp.o
    0x08009ed0   0x0000001c   Code   RO         5001    i.tcp_next_iss      tcp.o
    0x08009eec   0x000001d4   Code   RO         5269    i.tcp_output        tcp_out.o
    0x0800a0c0   0x00000086   Code   RO         5270    i.tcp_output_alloc_header  tcp_out.o
    0x0800a146   0x00000002   PAD
    0x0800a148   0x000000f4   Code   RO         5271    i.tcp_output_segment  tcp_out.o
    0x0800a23c   0x000000b4   Code   RO         5217    i.tcp_parseopt      tcp_in.o
    0x0800a2f0   0x00000080   Code   RO         5272    i.tcp_pbuf_prealloc  tcp_out.o
    0x0800a370   0x00000040   Code   RO         5002    i.tcp_pcb_purge     tcp.o
    0x0800a3b0   0x000000a0   Code   RO         5003    i.tcp_pcb_remove    tcp.o
    0x0800a450   0x00000018   Code   RO         5004    i.tcp_poll          tcp.o
    0x0800a468   0x000005a4   Code   RO         5218    i.tcp_process       tcp_in.o
    0x0800aa0c   0x0000008c   Code   RO         5005    i.tcp_process_refused_data  tcp.o
    0x0800aa98   0x000006d8   Code   RO         5219    i.tcp_receive       tcp_in.o
    0x0800b170   0x00000012   Code   RO         5006    i.tcp_recv          tcp.o
    0x0800b182   0x0000002e   Code   RO         5007    i.tcp_recv_null     tcp.o
    0x0800b1b0   0x00000060   Code   RO         5008    i.tcp_recved        tcp.o
    0x0800b210   0x0000005a   Code   RO         5273    i.tcp_rexmit        tcp_out.o
    0x0800b26a   0x00000070   Code   RO         5274    i.tcp_rexmit_fast   tcp_out.o
    0x0800b2da   0x0000003a   Code   RO         5275    i.tcp_rexmit_rto    tcp_out.o
    0x0800b314   0x000000ac   Code   RO         5276    i.tcp_rst           tcp_out.o
    0x0800b3c0   0x0000001a   Code   RO         5009    i.tcp_seg_free      tcp.o
    0x0800b3da   0x00000018   Code   RO         5010    i.tcp_segs_free     tcp.o
    0x0800b3f2   0x00000060   Code   RO         5277    i.tcp_send_empty_ack  tcp_out.o
    0x0800b452   0x0000004a   Code   RO         5278    i.tcp_send_fin      tcp_out.o
    0x0800b49c   0x00000012   Code   RO         5011    i.tcp_sent          tcp.o
    0x0800b4ae   0x00000004   Code   RO         5012    i.tcp_setprio       tcp.o
    0x0800b4b2   0x00000002   PAD
    0x0800b4b4   0x00000038   Code   RO          392    i.tcp_sever_test    client_tcpudp.o
    0x0800b4ec   0x0000038c   Code   RO         5014    i.tcp_slowtmr       tcp.o
    0x0800b878   0x00000002   Code   RO         5696    i.tcp_timer_needed  timers.o
    0x0800b87a   0x00000002   PAD
    0x0800b87c   0x000000ac   Code   RO         5220    i.tcp_timewait_input  tcp_in.o
    0x0800b928   0x00000024   Code   RO         5015    i.tcp_tmr           tcp.o
    0x0800b94c   0x00000058   Code   RO         5016    i.tcp_update_rcv_ann_wnd  tcp.o
    0x0800b9a4   0x00000404   Code   RO         5279    i.tcp_write         tcp_out.o
    0x0800bda8   0x0000009c   Code   RO         5280    i.tcp_write_checks  tcp_out.o
    0x0800be44   0x000000cc   Code   RO         5281    i.tcp_zero_window_probe  tcp_out.o
    0x0800bf10   0x00000044   Code   RO          613    i.tftp_cleanup_rd   tftpserver.o
    0x0800bf54   0x00000044   Code   RO          614    i.tftp_cleanup_wr   tftpserver.o
    0x0800bf98   0x00000038   Code   RO          615    i.tftp_construct_error_message  tftpserver.o
    0x0800bfd0   0x00000006   Code   RO          725    i.tftp_decode_op    tftputils.o
    0x0800bfd6   0x0000000e   Code   RO          726    i.tftp_extract_block  tftputils.o
    0x0800bfe4   0x00000010   Code   RO          727    i.tftp_extract_filename  tftputils.o
    0x0800bff4   0x00000026   Code   RO          728    i.tftp_is_correct_ack  tftputils.o
    0x0800c01a   0x00000002   PAD
    0x0800c01c   0x000000b4   Code   RO          616    i.tftp_process_read  tftpserver.o
    0x0800c0d0   0x0000009c   Code   RO          617    i.tftp_process_write  tftpserver.o
    0x0800c16c   0x00000030   Code   RO          618    i.tftp_send_ack_packet  tftpserver.o
    0x0800c19c   0x00000048   Code   RO          619    i.tftp_send_data_packet  tftpserver.o
    0x0800c1e4   0x00000032   Code   RO          620    i.tftp_send_error_message  tftpserver.o
    0x0800c216   0x0000004a   Code   RO          621    i.tftp_send_message  tftpserver.o
    0x0800c260   0x0000003c   Code   RO          622    i.tftp_send_next_block  tftpserver.o
    0x0800c29c   0x00000012   Code   RO          729    i.tftp_set_block    tftputils.o
    0x0800c2ae   0x00000014   Code   RO          730    i.tftp_set_data_message  tftputils.o
    0x0800c2c2   0x00000008   Code   RO          731    i.tftp_set_errorcode  tftputils.o
    0x0800c2ca   0x00000010   Code   RO          732    i.tftp_set_errormsg  tftputils.o
    0x0800c2da   0x00000008   Code   RO          733    i.tftp_set_opcode   tftputils.o
    0x0800c2e2   0x00000002   PAD
    0x0800c2e4   0x00000044   Code   RO          623    i.tftpd_init        tftpserver.o
    0x0800c328   0x00000088   Code   RO         5363    i.udp_bind          udp.o
    0x0800c3b0   0x0000005c   Code   RO          393    i.udp_client_callback  client_tcpudp.o
    0x0800c40c   0x00000040   Code   RO          394    i.udp_client_callback_app  client_tcpudp.o
    0x0800c44c   0x00000010   Code   RO         5365    i.udp_disconnect    udp.o
    0x0800c45c   0x00000254   Code   RO         5367    i.udp_input         udp.o
    0x0800c6b0   0x0000001c   Code   RO         5368    i.udp_new           udp.o
    0x0800c6cc   0x00000058   Code   RO         5369    i.udp_new_port      udp.o
    0x0800c724   0x00000006   Code   RO         5370    i.udp_recv          udp.o
    0x0800c72a   0x00000002   PAD
    0x0800c72c   0x00000040   Code   RO         5371    i.udp_remove        udp.o
    0x0800c76c   0x00000044   Code   RO         5373    i.udp_sendto        udp.o
    0x0800c7b0   0x00000114   Code   RO         5374    i.udp_sendto_if     udp.o
    0x0800c8c4   0x000000cc   Code   RO          624    i.wrq_recv_callback  tftpserver.o
    0x0800c990   0x00000024   Data   RO         4646    .constdata          memp.o
    0x0800c9b4   0x00000050   Data   RO         5017    .constdata          tcp.o
    0x0800ca04   0x00000008   Data   RO         5584    .constdata          ip_addr.o
    0x0800ca0c   0x0000000c   Data   RO         5762    .constdata          etharp.o
    0x0800ca18   0x00006aa4   Data   RO         7181    .constdata          fs_lwip.o
    0x080134bc   0x00000092   Data   RO          626    .conststring        tftpserver.o
    0x0801354e   0x00000068   Data   RO         5018    .conststring        tcp.o
    0x080135b6   0x00000002   PAD
    0x080135b8   0x00000020   Data   RO         7254    Region$$Table       anon$$obj.o


    Execution Region RW_IRAM1 (Base: 0x20000000, Size: 0x0000ddb8, Max: 0x00010000, ABSOLUTE, COMPRESSED[0x0000016c])

    Base Addr    Size         Type   Attr      Idx    E Section Name        Object

    0x20000000   0x00000008   Data   RW            6    .data               main.o
    0x20000008   0x00000020   Data   RW          167    .data               netconf.o
    0x20000028   0x00000424   Data   RW          397    .data               client_tcpudp.o
    0x2000044c   0x00000030   Data   RW          508    .data               filesystem.o
    0x2000047c   0x0000003c   Data   RW          627    .data               tftpserver.o
    0x200004b8   0x00000015   Data   RW          822    .data               ds18b20srom.o
    0x200004cd   0x00000003   PAD
    0x200004d0   0x00000115   Data   RW          935    .data               ds18b20sech.o
    0x200005e5   0x00000014   Data   RW         2483    .data               stm32f10x_rcc.o
    0x200005f9   0x00000003   PAD
    0x200005fc   0x00000010   Data   RW         3995    .data               stm32_eth.o
    0x2000060c   0x0000000c   Data   RW         4604    .data               mem.o
    0x20000618   0x00000004   Data   RW         4647    .data               memp.o
    0x2000061c   0x00000009   Data   RW         4699    .data               netif.o
    0x20000625   0x00000003   PAD
    0x20000628   0x00000004   Data   RW         4908    .data               raw.o
    0x2000062c   0x00000023   Data   RW         5019    .data               tcp.o
    0x2000064f   0x00000001   PAD
    0x20000650   0x00000020   Data   RW         5222    .data               tcp_in.o
    0x20000670   0x00000008   Data   RW         5375    .data               udp.o
    0x20000678   0x00000012   Data   RW         5542    .data               ip.o
    0x2000068a   0x00000002   PAD
    0x2000068c   0x00000006   Data   RW         5641    .data               ip_frag.o
    0x20000692   0x00000001   Data   RW         5763    .data               etharp.o
    0x20000693   0x00000001   PAD
    0x20000694   0x00000012   Data   RW         5850    .data               ethernetif.o
    0x200006a6   0x00000002   PAD
    0x200006a8   0x00000008   Data   RW         6889    .data               sd.o
    0x200006b0   0x00000034   Zero   RW          166    .bss                netconf.o
    0x200006e4   0x0000000a   Zero   RW          395    .bss                client_tcpudp.o
    0x200006ee   0x00000002   PAD
    0x200006f0   0x00000c80   Zero   RW          507    .bss                filesystem.o
    0x20001370   0x00000670   Zero   RW          625    .bss                tftpserver.o
    0x200019e0   0x00000031   Zero   RW          821    .bss                ds18b20srom.o
    0x20001a11   0x00001814   Zero   RW         4603    .bss                mem.o
    0x20003225   0x00000003   PAD
    0x20003228   0x0000688b   Zero   RW         4645    .bss                memp.o
    0x20009ab3   0x00000001   PAD
    0x20009ab4   0x0000010c   Zero   RW         4957    .bss                stats.o
    0x20009bc0   0x00000010   Zero   RW         5221    .bss                tcp_in.o
    0x20009bd0   0x000000c8   Zero   RW         5761    .bss                etharp.o
    0x20009c98   0x000029e8   Zero   RW         5849    .bss                ethernetif.o
    0x2000c680   0x00000738   Zero   RW         7060    .bss                httpd.o
    0x2000cdb8   0x00001000   Zero   RW         5950    STACK               startup_stm32f10x_cl.o


==============================================================================

Image component sizes


      Code (inc. data)   RO Data    RW Data    ZI Data      Debug   Object Name

      1442        262          0       1060         10          0   client_tcpudp.o
        62          0          0          0          0          0   def.o
      1050          0          0          0          0          0   dir.o
        80          0          0          0          0          0   disc.o
       424         50          0        277          0          0   ds18b20sech.o
      1650         96          0         21         49          0   ds18b20srom.o
       116          0          0          0          0          0   efs.o
      2680         82         12          1        200          0   etharp.o
       904        108          0         18      10728          0   ethernetif.o
       122          0          0          0          0          0   extract.o
      1762          6          0          0          0          0   fat.o
      1848          0          0          0          0          0   file.o
       712        174          0         48       3200          0   filesystem.o
      1238          0          0          0          0          0   fs.o
        80          4      27300          0          0          0   fs_lwip.o
      2162        164          0          0       1848          0   httpd.o
       724         20          0          0          0          0   icmp.o
         0          0          0          0          0          0   inet.o
       364          0          0          0          0          0   inet_chksum.o
         0          0          0          0          0          0   init.o
      2238          0          0          0          0          0   ioman.o
      1080         50          0         18          0          0   ip.o
        78          0          8          0          0          0   ip_addr.o
      1900         50          0          6          0          0   ip_frag.o
        68          0          0          0          0          0   ls.o
       284          8          0          8          0          0   main.o
      1264         82          0         12       6164          0   mem.o
       448         46         36          4      26763          0   memp.o
       172         32          0          0          0          0   misc.o
       416         26          0          0          0          0   netbios.o
       176         42          0         32         52          0   netconf.o
       366         26          0          9          0          0   netif.o
       276          0          0          0          0          0   partition.o
      1648          0          0          0          0          0   pbuf.o
        74          0          0          0          0          0   plibc.o
       116         14          0          4          0          0   raw.o
      1816         44          0          8          0          0   sd.o
       448         28          0          0          0          0   sd_stm32.o
        28          4        336          0       4096          0   startup_stm32f10x_cl.o
         0          0          0          0        268          0   stats.o
      1584        134          0         16          0          0   stm32_eth.o
       614         32          0          0          0          0   stm32f107.o
       424         12          0          0          0          0   stm32f10x_gpio.o
        70          0          0          0          0          0   stm32f10x_it.o
       540         56          0         20          0          0   stm32f10x_rcc.o
       112          0          0          0          0          0   stm32f10x_spi.o
       182         10          0          0          0          0   stm32f10x_tim.o
       384         32          0          0          0          0   system_stm32f10x.o
      3822        198        184         35          0          0   tcp.o
      5276        326          0         32         16          0   tcp_in.o
      3660         46          0          0          0          0   tcp_out.o
      1770        188        146         60       1648          0   tftpserver.o
       144          0          0          0          0          0   tftputils.o
         4          0          0          0          0          0   time.o
         2          0          0          0          0          0   timers.o
      1278         44          0          8          0          0   udp.o

    ----------------------------------------------------------------------
     50252       2496      28056       1712      55048          0   Object Totals
         0          0         32          0          0          0   (incl. Generated)
        70          0          2         15          6          3   (incl. Padding)

    ----------------------------------------------------------------------

      Code (inc. data)   RO Data    RW Data    ZI Data      Debug   Library Member Name

        92          0          0          0          0          0   __dczerorl2.o
         0          0          0          0          0          0   entry.o
         8          4          0          0          0          0   entry2.o
         4          0          0          0          0          0   entry5.o
         8          4          0          0          0          0   entry7.o
        30          0          0          0          0          0   handlers.o
        36          8          0          0          0          0   init.o
         0          0          0          0          0          0   iusefp.o
        30          0          0          0          0          0   llshl.o
        32          0          0          0          0          0   llushr.o
        26          0          0          0          0          0   memcmp.o
        36          0          0          0          0          0   memcpya.o
        38          0          0          0          0          0   memseta.o
        18          0          0          0          0          0   strchr.o
        28          0          0          0          0          0   strcmp.o
        18          0          0          0          0          0   strcpy.o
        16          0          0          0          0          0   strlen.o
        30          0          0          0          0          0   strncmp.o
        44          0          0          0          0          0   strstr.o
       194          0          0          0          0          0   depilogue.o
        62          0          0          0          0          0   dfixi.o
        34          0          0          0          0          0   dflti.o
       226          0          0          0          0          0   dmul.o

    ----------------------------------------------------------------------
      1012         16          0          0          0          0   Library Totals
         2          0          0          0          0          0   (incl. Padding)

    ----------------------------------------------------------------------

      Code (inc. data)   RO Data    RW Data    ZI Data      Debug   Library Name

       494         16          0          0          0        900   mc_w.l
       516          0          0          0          0        436   mf_w.l

    ----------------------------------------------------------------------
      1012         16          0          0          0          0   Library Totals

    ----------------------------------------------------------------------

==============================================================================


      Code (inc. data)   RO Data    RW Data    ZI Data      Debug   

     51264       2512      28056       1712      55048     703988   Grand Totals
     51264       2512      28056        364      55048     703988   ELF Image Totals (compressed)
     51264       2512      28056        364          0          0   ROM Totals

==============================================================================

    Total RO  Size (Code + RO Data)                79320 (  77.46kB)
    Total RW  Size (RW Data + ZI Data)             56760 (  55.43kB)
    Total ROM Size (Code + RO Data + RW Data)      79684 (  77.82kB)

==============================================================================

